
vm-data3:     file format elf32-tradbigmips

Disassembly of section .text:

004000b0 <__start>:
  4000b0:	3c1c1000 	lui	gp,0x1000
  4000b4:	279c7ff0 	addiu	gp,gp,32752
  4000b8:	3c08ffff 	lui	t0,0xffff
  4000bc:	3508fff8 	ori	t0,t0,0xfff8
  4000c0:	03a8e824 	and	sp,sp,t0
  4000c4:	27bdfff0 	addiu	sp,sp,-16
  4000c8:	3c011000 	lui	at,0x1000
  4000cc:	ac250004 	sw	a1,4(at)
  4000d0:	0c100069 	jal	4001a4 <main>
  4000d4:	00000000 	nop
  4000d8:	00408021 	move	s0,v0
  4000dc:	0c11d0e8 	jal	4743a0 <exit>
  4000e0:	02002021 	move	a0,s0
  4000e4:	0c11d101 	jal	474404 <_exit>
  4000e8:	02002021 	move	a0,s0
  4000ec:	02002021 	move	a0,s0
  4000f0:	24020000 	li	v0,0
  4000f4:	0000000c 	syscall
  4000f8:	0810003b 	j	4000ec <__start+0x3c>
  4000fc:	00000000 	nop

00400100 <write_data>:
  400100:	3c050001 	lui	a1,0x1
  400104:	00003021 	move	a2,zero
  400108:	34a5ffff 	ori	a1,a1,0xffff
  40010c:	00001821 	move	v1,zero
  400110:	3c041000 	lui	a0,0x1000
  400114:	24840010 	addiu	a0,a0,16
  400118:	ac830000 	sw	v1,0(a0)
  40011c:	24631000 	addiu	v1,v1,4096
  400120:	00a3102b 	sltu	v0,a1,v1
  400124:	1040fffc 	beqz	v0,400118 <write_data+0x18>
  400128:	24844000 	addiu	a0,a0,16384
  40012c:	24c60001 	addiu	a2,a2,1
  400130:	10c0fff6 	beqz	a2,40010c <write_data+0xc>
  400134:	00000000 	nop
  400138:	03e00008 	jr	ra
  40013c:	00000000 	nop

00400140 <read_data>:
  400140:	27bdffe8 	addiu	sp,sp,-24
  400144:	3c040001 	lui	a0,0x1
  400148:	afbf0010 	sw	ra,16(sp)
  40014c:	00002821 	move	a1,zero
  400150:	3484ffff 	ori	a0,a0,0xffff
  400154:	3c031000 	lui	v1,0x1000
  400158:	24630010 	addiu	v1,v1,16
  40015c:	8c660000 	lw	a2,0(v1)
  400160:	00000000 	nop
  400164:	14c50009 	bne	a2,a1,40018c <read_data+0x4c>
  400168:	24634000 	addiu	v1,v1,16384
  40016c:	24a51000 	addiu	a1,a1,4096
  400170:	0085102b 	sltu	v0,a0,a1
  400174:	1040fff9 	beqz	v0,40015c <read_data+0x1c>
  400178:	00000000 	nop
  40017c:	8fbf0010 	lw	ra,16(sp)
  400180:	00000000 	nop
  400184:	03e00008 	jr	ra
  400188:	27bd0018 	addiu	sp,sp,24
  40018c:	3c040047 	lui	a0,0x47
  400190:	24844e80 	addiu	a0,a0,20096
  400194:	0c11d0b0 	jal	4742c0 <printf>
  400198:	00a03821 	move	a3,a1
  40019c:	0c11d0e8 	jal	4743a0 <exit>
  4001a0:	24040001 	li	a0,1

004001a4 <main>:
  4001a4:	27bdffe8 	addiu	sp,sp,-24
  4001a8:	afb00010 	sw	s0,16(sp)
  4001ac:	afbf0014 	sw	ra,20(sp)
  4001b0:	00008021 	move	s0,zero
  4001b4:	0c11ce38 	jal	4738e0 <call_all>
  4001b8:	26100001 	addiu	s0,s0,1
  4001bc:	0c100040 	jal	400100 <write_data>
  4001c0:	00000000 	nop
  4001c4:	0c11ce38 	jal	4738e0 <call_all>
  4001c8:	00000000 	nop
  4001cc:	0c100050 	jal	400140 <read_data>
  4001d0:	00000000 	nop
  4001d4:	2e020005 	sltiu	v0,s0,5
  4001d8:	1440fff6 	bnez	v0,4001b4 <main+0x10>
  4001dc:	00000000 	nop
  4001e0:	3c040047 	lui	a0,0x47
  4001e4:	0c11d0dc 	jal	474370 <puts>
  4001e8:	24844ea0 	addiu	a0,a0,20128
  4001ec:	0c11d0e8 	jal	4743a0 <exit>
  4001f0:	00002021 	move	a0,zero
	...

00400200 <func_0>:
  400200:	27bdfff0 	addiu	sp,sp,-16
  400204:	2402000a 	li	v0,10
  400208:	afa20000 	sw	v0,0(sp)
  40020c:	2403000b 	li	v1,11
  400210:	2402000c 	li	v0,12
  400214:	afa30004 	sw	v1,4(sp)
  400218:	00002821 	move	a1,zero
  40021c:	afa20008 	sw	v0,8(sp)
  400220:	8fa20000 	lw	v0,0(sp)
  400224:	8fa30004 	lw	v1,4(sp)
  400228:	8fa40008 	lw	a0,8(sp)
  40022c:	00431021 	addu	v0,v0,v1
  400230:	00441023 	subu	v0,v0,a0
  400234:	00451021 	addu	v0,v0,a1
  400238:	afa20000 	sw	v0,0(sp)
  40023c:	8fa30000 	lw	v1,0(sp)
  400240:	8fa20004 	lw	v0,4(sp)
  400244:	8fa40008 	lw	a0,8(sp)
  400248:	00621821 	addu	v1,v1,v0
  40024c:	00641823 	subu	v1,v1,a0
  400250:	00651821 	addu	v1,v1,a1
  400254:	afa30004 	sw	v1,4(sp)
  400258:	8fa20000 	lw	v0,0(sp)
  40025c:	8fa30004 	lw	v1,4(sp)
  400260:	8fa40008 	lw	a0,8(sp)
  400264:	00431021 	addu	v0,v0,v1
  400268:	00441023 	subu	v0,v0,a0
  40026c:	00451021 	addu	v0,v0,a1
  400270:	afa20008 	sw	v0,8(sp)
  400274:	8fa30000 	lw	v1,0(sp)
  400278:	8fa20004 	lw	v0,4(sp)
  40027c:	8fa40008 	lw	a0,8(sp)
  400280:	00621821 	addu	v1,v1,v0
  400284:	00641823 	subu	v1,v1,a0
  400288:	00651821 	addu	v1,v1,a1
  40028c:	afa30000 	sw	v1,0(sp)
  400290:	8fa20000 	lw	v0,0(sp)
  400294:	8fa30004 	lw	v1,4(sp)
  400298:	8fa40008 	lw	a0,8(sp)
  40029c:	00431021 	addu	v0,v0,v1
  4002a0:	00441023 	subu	v0,v0,a0
  4002a4:	00451021 	addu	v0,v0,a1
  4002a8:	afa20004 	sw	v0,4(sp)
  4002ac:	8fa30000 	lw	v1,0(sp)
  4002b0:	8fa20004 	lw	v0,4(sp)
  4002b4:	8fa40008 	lw	a0,8(sp)
  4002b8:	00621821 	addu	v1,v1,v0
  4002bc:	00641823 	subu	v1,v1,a0
  4002c0:	00651821 	addu	v1,v1,a1
  4002c4:	afa30008 	sw	v1,8(sp)
  4002c8:	8fa20000 	lw	v0,0(sp)
  4002cc:	8fa30004 	lw	v1,4(sp)
  4002d0:	8fa40008 	lw	a0,8(sp)
  4002d4:	00431021 	addu	v0,v0,v1
  4002d8:	00441023 	subu	v0,v0,a0
  4002dc:	00451021 	addu	v0,v0,a1
  4002e0:	afa20000 	sw	v0,0(sp)
  4002e4:	8fa30000 	lw	v1,0(sp)
  4002e8:	8fa20004 	lw	v0,4(sp)
  4002ec:	8fa40008 	lw	a0,8(sp)
  4002f0:	00621821 	addu	v1,v1,v0
  4002f4:	00641823 	subu	v1,v1,a0
  4002f8:	00651821 	addu	v1,v1,a1
  4002fc:	afa30004 	sw	v1,4(sp)
  400300:	8fa20000 	lw	v0,0(sp)
  400304:	8fa30004 	lw	v1,4(sp)
  400308:	8fa40008 	lw	a0,8(sp)
  40030c:	00431021 	addu	v0,v0,v1
  400310:	00441023 	subu	v0,v0,a0
  400314:	00451021 	addu	v0,v0,a1
  400318:	afa20008 	sw	v0,8(sp)
  40031c:	8fa30000 	lw	v1,0(sp)
  400320:	8fa20004 	lw	v0,4(sp)
  400324:	8fa40008 	lw	a0,8(sp)
  400328:	00621821 	addu	v1,v1,v0
  40032c:	00641823 	subu	v1,v1,a0
  400330:	00651821 	addu	v1,v1,a1
  400334:	afa30000 	sw	v1,0(sp)
  400338:	8fa20000 	lw	v0,0(sp)
  40033c:	8fa30004 	lw	v1,4(sp)
  400340:	8fa40008 	lw	a0,8(sp)
  400344:	00431021 	addu	v0,v0,v1
  400348:	00441023 	subu	v0,v0,a0
  40034c:	00451021 	addu	v0,v0,a1
  400350:	afa20004 	sw	v0,4(sp)
  400354:	8fa30000 	lw	v1,0(sp)
  400358:	8fa20004 	lw	v0,4(sp)
  40035c:	8fa40008 	lw	a0,8(sp)
  400360:	00621821 	addu	v1,v1,v0
  400364:	00641823 	subu	v1,v1,a0
  400368:	00651821 	addu	v1,v1,a1
  40036c:	afa30008 	sw	v1,8(sp)
  400370:	8fa20000 	lw	v0,0(sp)
  400374:	8fa30004 	lw	v1,4(sp)
  400378:	8fa40008 	lw	a0,8(sp)
  40037c:	00431021 	addu	v0,v0,v1
  400380:	00441023 	subu	v0,v0,a0
  400384:	00451021 	addu	v0,v0,a1
  400388:	afa20000 	sw	v0,0(sp)
  40038c:	8fa30000 	lw	v1,0(sp)
  400390:	8fa20004 	lw	v0,4(sp)
  400394:	8fa40008 	lw	a0,8(sp)
  400398:	00621821 	addu	v1,v1,v0
  40039c:	00641823 	subu	v1,v1,a0
  4003a0:	00651821 	addu	v1,v1,a1
  4003a4:	afa30004 	sw	v1,4(sp)
  4003a8:	8fa20000 	lw	v0,0(sp)
  4003ac:	8fa30004 	lw	v1,4(sp)
  4003b0:	8fa40008 	lw	a0,8(sp)
  4003b4:	00431021 	addu	v0,v0,v1
  4003b8:	00441023 	subu	v0,v0,a0
  4003bc:	00451021 	addu	v0,v0,a1
  4003c0:	afa20008 	sw	v0,8(sp)
  4003c4:	8fa30000 	lw	v1,0(sp)
  4003c8:	8fa20004 	lw	v0,4(sp)
  4003cc:	8fa40008 	lw	a0,8(sp)
  4003d0:	00621821 	addu	v1,v1,v0
  4003d4:	00641823 	subu	v1,v1,a0
  4003d8:	00651821 	addu	v1,v1,a1
  4003dc:	24a50001 	addiu	a1,a1,1
  4003e0:	28a20002 	slti	v0,a1,2
  4003e4:	1440ff8e 	bnez	v0,400220 <func_0+0x20>
  4003e8:	afa30000 	sw	v1,0(sp)
  4003ec:	00002821 	move	a1,zero
  4003f0:	8fa20000 	lw	v0,0(sp)
  4003f4:	8fa30004 	lw	v1,4(sp)
  4003f8:	8fa40008 	lw	a0,8(sp)
  4003fc:	00431021 	addu	v0,v0,v1
  400400:	00441023 	subu	v0,v0,a0
  400404:	00451021 	addu	v0,v0,a1
  400408:	afa20004 	sw	v0,4(sp)
  40040c:	8fa30000 	lw	v1,0(sp)
  400410:	8fa20004 	lw	v0,4(sp)
  400414:	8fa40008 	lw	a0,8(sp)
  400418:	00621821 	addu	v1,v1,v0
  40041c:	00641823 	subu	v1,v1,a0
  400420:	00651821 	addu	v1,v1,a1
  400424:	afa30000 	sw	v1,0(sp)
  400428:	8fa20000 	lw	v0,0(sp)
  40042c:	8fa30004 	lw	v1,4(sp)
  400430:	8fa40008 	lw	a0,8(sp)
  400434:	00431021 	addu	v0,v0,v1
  400438:	00441023 	subu	v0,v0,a0
  40043c:	00451021 	addu	v0,v0,a1
  400440:	afa20008 	sw	v0,8(sp)
  400444:	8fa30000 	lw	v1,0(sp)
  400448:	8fa20004 	lw	v0,4(sp)
  40044c:	8fa40008 	lw	a0,8(sp)
  400450:	00621821 	addu	v1,v1,v0
  400454:	00641823 	subu	v1,v1,a0
  400458:	00651821 	addu	v1,v1,a1
  40045c:	afa30004 	sw	v1,4(sp)
  400460:	8fa20000 	lw	v0,0(sp)
  400464:	8fa30004 	lw	v1,4(sp)
  400468:	8fa40008 	lw	a0,8(sp)
  40046c:	00431021 	addu	v0,v0,v1
  400470:	00441023 	subu	v0,v0,a0
  400474:	00451021 	addu	v0,v0,a1
  400478:	afa20004 	sw	v0,4(sp)
  40047c:	8fa30000 	lw	v1,0(sp)
  400480:	8fa20004 	lw	v0,4(sp)
  400484:	8fa40008 	lw	a0,8(sp)
  400488:	00621821 	addu	v1,v1,v0
  40048c:	00641823 	subu	v1,v1,a0
  400490:	00651821 	addu	v1,v1,a1
  400494:	afa30000 	sw	v1,0(sp)
  400498:	8fa20000 	lw	v0,0(sp)
  40049c:	8fa30004 	lw	v1,4(sp)
  4004a0:	8fa40008 	lw	a0,8(sp)
  4004a4:	00431021 	addu	v0,v0,v1
  4004a8:	00441023 	subu	v0,v0,a0
  4004ac:	00451021 	addu	v0,v0,a1
  4004b0:	afa20008 	sw	v0,8(sp)
  4004b4:	8fa30000 	lw	v1,0(sp)
  4004b8:	8fa20004 	lw	v0,4(sp)
  4004bc:	8fa40008 	lw	a0,8(sp)
  4004c0:	00621821 	addu	v1,v1,v0
  4004c4:	00641823 	subu	v1,v1,a0
  4004c8:	00651821 	addu	v1,v1,a1
  4004cc:	afa30004 	sw	v1,4(sp)
  4004d0:	8fa20000 	lw	v0,0(sp)
  4004d4:	8fa30004 	lw	v1,4(sp)
  4004d8:	8fa40008 	lw	a0,8(sp)
  4004dc:	00431021 	addu	v0,v0,v1
  4004e0:	00441023 	subu	v0,v0,a0
  4004e4:	00451021 	addu	v0,v0,a1
  4004e8:	afa20000 	sw	v0,0(sp)
  4004ec:	8fa30000 	lw	v1,0(sp)
  4004f0:	8fa20004 	lw	v0,4(sp)
  4004f4:	8fa40008 	lw	a0,8(sp)
  4004f8:	00621821 	addu	v1,v1,v0
  4004fc:	00641823 	subu	v1,v1,a0
  400500:	00651821 	addu	v1,v1,a1
  400504:	afa30008 	sw	v1,8(sp)
  400508:	8fa20000 	lw	v0,0(sp)
  40050c:	8fa30004 	lw	v1,4(sp)
  400510:	8fa40008 	lw	a0,8(sp)
  400514:	00431021 	addu	v0,v0,v1
  400518:	00441023 	subu	v0,v0,a0
  40051c:	00451021 	addu	v0,v0,a1
  400520:	afa20004 	sw	v0,4(sp)
  400524:	8fa30000 	lw	v1,0(sp)
  400528:	8fa20004 	lw	v0,4(sp)
  40052c:	8fa40008 	lw	a0,8(sp)
  400530:	00621821 	addu	v1,v1,v0
  400534:	00641823 	subu	v1,v1,a0
  400538:	00651821 	addu	v1,v1,a1
  40053c:	afa30000 	sw	v1,0(sp)
  400540:	8fa20000 	lw	v0,0(sp)
  400544:	8fa30004 	lw	v1,4(sp)
  400548:	8fa40008 	lw	a0,8(sp)
  40054c:	00431021 	addu	v0,v0,v1
  400550:	00441023 	subu	v0,v0,a0
  400554:	00451021 	addu	v0,v0,a1
  400558:	24a50001 	addiu	a1,a1,1
  40055c:	28a30002 	slti	v1,a1,2
  400560:	1460ffa3 	bnez	v1,4003f0 <func_0+0x1f0>
  400564:	afa20008 	sw	v0,8(sp)
  400568:	00002821 	move	a1,zero
  40056c:	8fa20000 	lw	v0,0(sp)
  400570:	8fa30004 	lw	v1,4(sp)
  400574:	8fa40008 	lw	a0,8(sp)
  400578:	00431021 	addu	v0,v0,v1
  40057c:	00441023 	subu	v0,v0,a0
  400580:	00451021 	addu	v0,v0,a1
  400584:	afa20008 	sw	v0,8(sp)
  400588:	8fa30000 	lw	v1,0(sp)
  40058c:	8fa20004 	lw	v0,4(sp)
  400590:	8fa40008 	lw	a0,8(sp)
  400594:	00621821 	addu	v1,v1,v0
  400598:	00641823 	subu	v1,v1,a0
  40059c:	00651821 	addu	v1,v1,a1
  4005a0:	afa30004 	sw	v1,4(sp)
  4005a4:	8fa20000 	lw	v0,0(sp)
  4005a8:	8fa30004 	lw	v1,4(sp)
  4005ac:	8fa40008 	lw	a0,8(sp)
  4005b0:	00431021 	addu	v0,v0,v1
  4005b4:	00441023 	subu	v0,v0,a0
  4005b8:	00451021 	addu	v0,v0,a1
  4005bc:	afa20000 	sw	v0,0(sp)
  4005c0:	8fa30000 	lw	v1,0(sp)
  4005c4:	8fa20004 	lw	v0,4(sp)
  4005c8:	8fa40008 	lw	a0,8(sp)
  4005cc:	00621821 	addu	v1,v1,v0
  4005d0:	00641823 	subu	v1,v1,a0
  4005d4:	00651821 	addu	v1,v1,a1
  4005d8:	afa30008 	sw	v1,8(sp)
  4005dc:	8fa20000 	lw	v0,0(sp)
  4005e0:	8fa30004 	lw	v1,4(sp)
  4005e4:	8fa40008 	lw	a0,8(sp)
  4005e8:	00431021 	addu	v0,v0,v1
  4005ec:	00441023 	subu	v0,v0,a0
  4005f0:	00451021 	addu	v0,v0,a1
  4005f4:	afa20004 	sw	v0,4(sp)
  4005f8:	8fa30000 	lw	v1,0(sp)
  4005fc:	8fa20004 	lw	v0,4(sp)
  400600:	8fa40008 	lw	a0,8(sp)
  400604:	00621821 	addu	v1,v1,v0
  400608:	00641823 	subu	v1,v1,a0
  40060c:	00651821 	addu	v1,v1,a1
  400610:	afa30000 	sw	v1,0(sp)
  400614:	8fa20000 	lw	v0,0(sp)
  400618:	8fa30004 	lw	v1,4(sp)
  40061c:	8fa40008 	lw	a0,8(sp)
  400620:	00431021 	addu	v0,v0,v1
  400624:	00441023 	subu	v0,v0,a0
  400628:	00451021 	addu	v0,v0,a1
  40062c:	24a50001 	addiu	a1,a1,1
  400630:	28a30002 	slti	v1,a1,2
  400634:	1460ffcd 	bnez	v1,40056c <func_0+0x36c>
  400638:	afa20008 	sw	v0,8(sp)
  40063c:	00002821 	move	a1,zero
  400640:	8fa20000 	lw	v0,0(sp)
  400644:	8fa30004 	lw	v1,4(sp)
  400648:	8fa40008 	lw	a0,8(sp)
  40064c:	00431021 	addu	v0,v0,v1
  400650:	00441023 	subu	v0,v0,a0
  400654:	00451021 	addu	v0,v0,a1
  400658:	afa20000 	sw	v0,0(sp)
  40065c:	8fa30000 	lw	v1,0(sp)
  400660:	8fa20004 	lw	v0,4(sp)
  400664:	8fa40008 	lw	a0,8(sp)
  400668:	00621821 	addu	v1,v1,v0
  40066c:	00641823 	subu	v1,v1,a0
  400670:	00651821 	addu	v1,v1,a1
  400674:	afa30008 	sw	v1,8(sp)
  400678:	8fa20000 	lw	v0,0(sp)
  40067c:	8fa30004 	lw	v1,4(sp)
  400680:	8fa40008 	lw	a0,8(sp)
  400684:	00431021 	addu	v0,v0,v1
  400688:	00441023 	subu	v0,v0,a0
  40068c:	00451021 	addu	v0,v0,a1
  400690:	afa20004 	sw	v0,4(sp)
  400694:	8fa30000 	lw	v1,0(sp)
  400698:	8fa20004 	lw	v0,4(sp)
  40069c:	8fa40008 	lw	a0,8(sp)
  4006a0:	00621821 	addu	v1,v1,v0
  4006a4:	00641823 	subu	v1,v1,a0
  4006a8:	00651821 	addu	v1,v1,a1
  4006ac:	afa30000 	sw	v1,0(sp)
  4006b0:	8fa20000 	lw	v0,0(sp)
  4006b4:	8fa30004 	lw	v1,4(sp)
  4006b8:	8fa40008 	lw	a0,8(sp)
  4006bc:	00431021 	addu	v0,v0,v1
  4006c0:	00441023 	subu	v0,v0,a0
  4006c4:	00451021 	addu	v0,v0,a1
  4006c8:	afa20008 	sw	v0,8(sp)
  4006cc:	8fa30000 	lw	v1,0(sp)
  4006d0:	8fa20004 	lw	v0,4(sp)
  4006d4:	8fa40008 	lw	a0,8(sp)
  4006d8:	00621821 	addu	v1,v1,v0
  4006dc:	00641823 	subu	v1,v1,a0
  4006e0:	00651821 	addu	v1,v1,a1
  4006e4:	afa30004 	sw	v1,4(sp)
  4006e8:	8fa20000 	lw	v0,0(sp)
  4006ec:	8fa30004 	lw	v1,4(sp)
  4006f0:	8fa40008 	lw	a0,8(sp)
  4006f4:	00431021 	addu	v0,v0,v1
  4006f8:	00441023 	subu	v0,v0,a0
  4006fc:	00451021 	addu	v0,v0,a1
  400700:	afa20000 	sw	v0,0(sp)
  400704:	8fa30000 	lw	v1,0(sp)
  400708:	8fa20004 	lw	v0,4(sp)
  40070c:	8fa40008 	lw	a0,8(sp)
  400710:	00621821 	addu	v1,v1,v0
  400714:	00641823 	subu	v1,v1,a0
  400718:	00651821 	addu	v1,v1,a1
  40071c:	afa30004 	sw	v1,4(sp)
  400720:	8fa20000 	lw	v0,0(sp)
  400724:	8fa30004 	lw	v1,4(sp)
  400728:	8fa40008 	lw	a0,8(sp)
  40072c:	00431021 	addu	v0,v0,v1
  400730:	00441023 	subu	v0,v0,a0
  400734:	00451021 	addu	v0,v0,a1
  400738:	afa20000 	sw	v0,0(sp)
  40073c:	8fa30000 	lw	v1,0(sp)
  400740:	8fa20004 	lw	v0,4(sp)
  400744:	8fa40008 	lw	a0,8(sp)
  400748:	00621821 	addu	v1,v1,v0
  40074c:	00641823 	subu	v1,v1,a0
  400750:	00651821 	addu	v1,v1,a1
  400754:	afa30008 	sw	v1,8(sp)
  400758:	8fa20000 	lw	v0,0(sp)
  40075c:	8fa30004 	lw	v1,4(sp)
  400760:	8fa40008 	lw	a0,8(sp)
  400764:	00431021 	addu	v0,v0,v1
  400768:	00441023 	subu	v0,v0,a0
  40076c:	00451021 	addu	v0,v0,a1
  400770:	afa20004 	sw	v0,4(sp)
  400774:	8fa30000 	lw	v1,0(sp)
  400778:	8fa20004 	lw	v0,4(sp)
  40077c:	8fa40008 	lw	a0,8(sp)
  400780:	00621821 	addu	v1,v1,v0
  400784:	00641823 	subu	v1,v1,a0
  400788:	00651821 	addu	v1,v1,a1
  40078c:	afa30000 	sw	v1,0(sp)
  400790:	8fa20000 	lw	v0,0(sp)
  400794:	8fa30004 	lw	v1,4(sp)
  400798:	8fa40008 	lw	a0,8(sp)
  40079c:	00431021 	addu	v0,v0,v1
  4007a0:	00441023 	subu	v0,v0,a0
  4007a4:	00451021 	addu	v0,v0,a1
  4007a8:	afa20008 	sw	v0,8(sp)
  4007ac:	8fa30000 	lw	v1,0(sp)
  4007b0:	8fa20004 	lw	v0,4(sp)
  4007b4:	8fa40008 	lw	a0,8(sp)
  4007b8:	00621821 	addu	v1,v1,v0
  4007bc:	00641823 	subu	v1,v1,a0
  4007c0:	00651821 	addu	v1,v1,a1
  4007c4:	afa30004 	sw	v1,4(sp)
  4007c8:	8fa20000 	lw	v0,0(sp)
  4007cc:	8fa30004 	lw	v1,4(sp)
  4007d0:	8fa40008 	lw	a0,8(sp)
  4007d4:	00431021 	addu	v0,v0,v1
  4007d8:	00441023 	subu	v0,v0,a0
  4007dc:	00451021 	addu	v0,v0,a1
  4007e0:	afa20000 	sw	v0,0(sp)
  4007e4:	8fa30000 	lw	v1,0(sp)
  4007e8:	8fa20004 	lw	v0,4(sp)
  4007ec:	8fa40008 	lw	a0,8(sp)
  4007f0:	00621821 	addu	v1,v1,v0
  4007f4:	00641823 	subu	v1,v1,a0
  4007f8:	00651821 	addu	v1,v1,a1
  4007fc:	24a50001 	addiu	a1,a1,1
  400800:	28a20002 	slti	v0,a1,2
  400804:	1440ff8e 	bnez	v0,400640 <func_0+0x440>
  400808:	afa30004 	sw	v1,4(sp)
  40080c:	8fa20000 	lw	v0,0(sp)
  400810:	8fa30004 	lw	v1,4(sp)
  400814:	8fa40008 	lw	a0,8(sp)
  400818:	00431021 	addu	v0,v0,v1
  40081c:	00441021 	addu	v0,v0,a0
  400820:	03e00008 	jr	ra
  400824:	27bd0010 	addiu	sp,sp,16

00400828 <func_1>:
  400828:	27bdfff0 	addiu	sp,sp,-16
  40082c:	2402000a 	li	v0,10
  400830:	afa20000 	sw	v0,0(sp)
  400834:	2403000b 	li	v1,11
  400838:	2402000c 	li	v0,12
  40083c:	afa30004 	sw	v1,4(sp)
  400840:	00002821 	move	a1,zero
  400844:	afa20008 	sw	v0,8(sp)
  400848:	8fa20000 	lw	v0,0(sp)
  40084c:	8fa30004 	lw	v1,4(sp)
  400850:	8fa40008 	lw	a0,8(sp)
  400854:	00431021 	addu	v0,v0,v1
  400858:	00441023 	subu	v0,v0,a0
  40085c:	00451021 	addu	v0,v0,a1
  400860:	afa20000 	sw	v0,0(sp)
  400864:	8fa30000 	lw	v1,0(sp)
  400868:	8fa20004 	lw	v0,4(sp)
  40086c:	8fa40008 	lw	a0,8(sp)
  400870:	00621821 	addu	v1,v1,v0
  400874:	00641823 	subu	v1,v1,a0
  400878:	00651821 	addu	v1,v1,a1
  40087c:	afa30004 	sw	v1,4(sp)
  400880:	8fa20000 	lw	v0,0(sp)
  400884:	8fa30004 	lw	v1,4(sp)
  400888:	8fa40008 	lw	a0,8(sp)
  40088c:	00431021 	addu	v0,v0,v1
  400890:	00441023 	subu	v0,v0,a0
  400894:	00451021 	addu	v0,v0,a1
  400898:	afa20008 	sw	v0,8(sp)
  40089c:	8fa30000 	lw	v1,0(sp)
  4008a0:	8fa20004 	lw	v0,4(sp)
  4008a4:	8fa40008 	lw	a0,8(sp)
  4008a8:	00621821 	addu	v1,v1,v0
  4008ac:	00641823 	subu	v1,v1,a0
  4008b0:	00651821 	addu	v1,v1,a1
  4008b4:	afa30000 	sw	v1,0(sp)
  4008b8:	8fa20000 	lw	v0,0(sp)
  4008bc:	8fa30004 	lw	v1,4(sp)
  4008c0:	8fa40008 	lw	a0,8(sp)
  4008c4:	00431021 	addu	v0,v0,v1
  4008c8:	00441023 	subu	v0,v0,a0
  4008cc:	00451021 	addu	v0,v0,a1
  4008d0:	afa20004 	sw	v0,4(sp)
  4008d4:	8fa30000 	lw	v1,0(sp)
  4008d8:	8fa20004 	lw	v0,4(sp)
  4008dc:	8fa40008 	lw	a0,8(sp)
  4008e0:	00621821 	addu	v1,v1,v0
  4008e4:	00641823 	subu	v1,v1,a0
  4008e8:	00651821 	addu	v1,v1,a1
  4008ec:	afa30008 	sw	v1,8(sp)
  4008f0:	8fa20000 	lw	v0,0(sp)
  4008f4:	8fa30004 	lw	v1,4(sp)
  4008f8:	8fa40008 	lw	a0,8(sp)
  4008fc:	00431021 	addu	v0,v0,v1
  400900:	00441023 	subu	v0,v0,a0
  400904:	00451021 	addu	v0,v0,a1
  400908:	afa20000 	sw	v0,0(sp)
  40090c:	8fa30000 	lw	v1,0(sp)
  400910:	8fa20004 	lw	v0,4(sp)
  400914:	8fa40008 	lw	a0,8(sp)
  400918:	00621821 	addu	v1,v1,v0
  40091c:	00641823 	subu	v1,v1,a0
  400920:	00651821 	addu	v1,v1,a1
  400924:	afa30004 	sw	v1,4(sp)
  400928:	8fa20000 	lw	v0,0(sp)
  40092c:	8fa30004 	lw	v1,4(sp)
  400930:	8fa40008 	lw	a0,8(sp)
  400934:	00431021 	addu	v0,v0,v1
  400938:	00441023 	subu	v0,v0,a0
  40093c:	00451021 	addu	v0,v0,a1
  400940:	afa20008 	sw	v0,8(sp)
  400944:	8fa30000 	lw	v1,0(sp)
  400948:	8fa20004 	lw	v0,4(sp)
  40094c:	8fa40008 	lw	a0,8(sp)
  400950:	00621821 	addu	v1,v1,v0
  400954:	00641823 	subu	v1,v1,a0
  400958:	00651821 	addu	v1,v1,a1
  40095c:	afa30000 	sw	v1,0(sp)
  400960:	8fa20000 	lw	v0,0(sp)
  400964:	8fa30004 	lw	v1,4(sp)
  400968:	8fa40008 	lw	a0,8(sp)
  40096c:	00431021 	addu	v0,v0,v1
  400970:	00441023 	subu	v0,v0,a0
  400974:	00451021 	addu	v0,v0,a1
  400978:	afa20004 	sw	v0,4(sp)
  40097c:	8fa30000 	lw	v1,0(sp)
  400980:	8fa20004 	lw	v0,4(sp)
  400984:	8fa40008 	lw	a0,8(sp)
  400988:	00621821 	addu	v1,v1,v0
  40098c:	00641823 	subu	v1,v1,a0
  400990:	00651821 	addu	v1,v1,a1
  400994:	afa30008 	sw	v1,8(sp)
  400998:	8fa20000 	lw	v0,0(sp)
  40099c:	8fa30004 	lw	v1,4(sp)
  4009a0:	8fa40008 	lw	a0,8(sp)
  4009a4:	00431021 	addu	v0,v0,v1
  4009a8:	00441023 	subu	v0,v0,a0
  4009ac:	00451021 	addu	v0,v0,a1
  4009b0:	afa20000 	sw	v0,0(sp)
  4009b4:	8fa30000 	lw	v1,0(sp)
  4009b8:	8fa20004 	lw	v0,4(sp)
  4009bc:	8fa40008 	lw	a0,8(sp)
  4009c0:	00621821 	addu	v1,v1,v0
  4009c4:	00641823 	subu	v1,v1,a0
  4009c8:	00651821 	addu	v1,v1,a1
  4009cc:	afa30004 	sw	v1,4(sp)
  4009d0:	8fa20000 	lw	v0,0(sp)
  4009d4:	8fa30004 	lw	v1,4(sp)
  4009d8:	8fa40008 	lw	a0,8(sp)
  4009dc:	00431021 	addu	v0,v0,v1
  4009e0:	00441023 	subu	v0,v0,a0
  4009e4:	00451021 	addu	v0,v0,a1
  4009e8:	afa20008 	sw	v0,8(sp)
  4009ec:	8fa30000 	lw	v1,0(sp)
  4009f0:	8fa20004 	lw	v0,4(sp)
  4009f4:	8fa40008 	lw	a0,8(sp)
  4009f8:	00621821 	addu	v1,v1,v0
  4009fc:	00641823 	subu	v1,v1,a0
  400a00:	00651821 	addu	v1,v1,a1
  400a04:	24a50001 	addiu	a1,a1,1
  400a08:	28a20002 	slti	v0,a1,2
  400a0c:	1440ff8e 	bnez	v0,400848 <func_1+0x20>
  400a10:	afa30000 	sw	v1,0(sp)
  400a14:	00002821 	move	a1,zero
  400a18:	8fa20000 	lw	v0,0(sp)
  400a1c:	8fa30004 	lw	v1,4(sp)
  400a20:	8fa40008 	lw	a0,8(sp)
  400a24:	00431021 	addu	v0,v0,v1
  400a28:	00441023 	subu	v0,v0,a0
  400a2c:	00451021 	addu	v0,v0,a1
  400a30:	afa20004 	sw	v0,4(sp)
  400a34:	8fa30000 	lw	v1,0(sp)
  400a38:	8fa20004 	lw	v0,4(sp)
  400a3c:	8fa40008 	lw	a0,8(sp)
  400a40:	00621821 	addu	v1,v1,v0
  400a44:	00641823 	subu	v1,v1,a0
  400a48:	00651821 	addu	v1,v1,a1
  400a4c:	afa30000 	sw	v1,0(sp)
  400a50:	8fa20000 	lw	v0,0(sp)
  400a54:	8fa30004 	lw	v1,4(sp)
  400a58:	8fa40008 	lw	a0,8(sp)
  400a5c:	00431021 	addu	v0,v0,v1
  400a60:	00441023 	subu	v0,v0,a0
  400a64:	00451021 	addu	v0,v0,a1
  400a68:	afa20008 	sw	v0,8(sp)
  400a6c:	8fa30000 	lw	v1,0(sp)
  400a70:	8fa20004 	lw	v0,4(sp)
  400a74:	8fa40008 	lw	a0,8(sp)
  400a78:	00621821 	addu	v1,v1,v0
  400a7c:	00641823 	subu	v1,v1,a0
  400a80:	00651821 	addu	v1,v1,a1
  400a84:	afa30004 	sw	v1,4(sp)
  400a88:	8fa20000 	lw	v0,0(sp)
  400a8c:	8fa30004 	lw	v1,4(sp)
  400a90:	8fa40008 	lw	a0,8(sp)
  400a94:	00431021 	addu	v0,v0,v1
  400a98:	00441023 	subu	v0,v0,a0
  400a9c:	00451021 	addu	v0,v0,a1
  400aa0:	afa20004 	sw	v0,4(sp)
  400aa4:	8fa30000 	lw	v1,0(sp)
  400aa8:	8fa20004 	lw	v0,4(sp)
  400aac:	8fa40008 	lw	a0,8(sp)
  400ab0:	00621821 	addu	v1,v1,v0
  400ab4:	00641823 	subu	v1,v1,a0
  400ab8:	00651821 	addu	v1,v1,a1
  400abc:	afa30000 	sw	v1,0(sp)
  400ac0:	8fa20000 	lw	v0,0(sp)
  400ac4:	8fa30004 	lw	v1,4(sp)
  400ac8:	8fa40008 	lw	a0,8(sp)
  400acc:	00431021 	addu	v0,v0,v1
  400ad0:	00441023 	subu	v0,v0,a0
  400ad4:	00451021 	addu	v0,v0,a1
  400ad8:	afa20008 	sw	v0,8(sp)
  400adc:	8fa30000 	lw	v1,0(sp)
  400ae0:	8fa20004 	lw	v0,4(sp)
  400ae4:	8fa40008 	lw	a0,8(sp)
  400ae8:	00621821 	addu	v1,v1,v0
  400aec:	00641823 	subu	v1,v1,a0
  400af0:	00651821 	addu	v1,v1,a1
  400af4:	afa30004 	sw	v1,4(sp)
  400af8:	8fa20000 	lw	v0,0(sp)
  400afc:	8fa30004 	lw	v1,4(sp)
  400b00:	8fa40008 	lw	a0,8(sp)
  400b04:	00431021 	addu	v0,v0,v1
  400b08:	00441023 	subu	v0,v0,a0
  400b0c:	00451021 	addu	v0,v0,a1
  400b10:	afa20000 	sw	v0,0(sp)
  400b14:	8fa30000 	lw	v1,0(sp)
  400b18:	8fa20004 	lw	v0,4(sp)
  400b1c:	8fa40008 	lw	a0,8(sp)
  400b20:	00621821 	addu	v1,v1,v0
  400b24:	00641823 	subu	v1,v1,a0
  400b28:	00651821 	addu	v1,v1,a1
  400b2c:	afa30008 	sw	v1,8(sp)
  400b30:	8fa20000 	lw	v0,0(sp)
  400b34:	8fa30004 	lw	v1,4(sp)
  400b38:	8fa40008 	lw	a0,8(sp)
  400b3c:	00431021 	addu	v0,v0,v1
  400b40:	00441023 	subu	v0,v0,a0
  400b44:	00451021 	addu	v0,v0,a1
  400b48:	afa20004 	sw	v0,4(sp)
  400b4c:	8fa30000 	lw	v1,0(sp)
  400b50:	8fa20004 	lw	v0,4(sp)
  400b54:	8fa40008 	lw	a0,8(sp)
  400b58:	00621821 	addu	v1,v1,v0
  400b5c:	00641823 	subu	v1,v1,a0
  400b60:	00651821 	addu	v1,v1,a1
  400b64:	afa30000 	sw	v1,0(sp)
  400b68:	8fa20000 	lw	v0,0(sp)
  400b6c:	8fa30004 	lw	v1,4(sp)
  400b70:	8fa40008 	lw	a0,8(sp)
  400b74:	00431021 	addu	v0,v0,v1
  400b78:	00441023 	subu	v0,v0,a0
  400b7c:	00451021 	addu	v0,v0,a1
  400b80:	24a50001 	addiu	a1,a1,1
  400b84:	28a30002 	slti	v1,a1,2
  400b88:	1460ffa3 	bnez	v1,400a18 <func_1+0x1f0>
  400b8c:	afa20008 	sw	v0,8(sp)
  400b90:	00002821 	move	a1,zero
  400b94:	8fa20000 	lw	v0,0(sp)
  400b98:	8fa30004 	lw	v1,4(sp)
  400b9c:	8fa40008 	lw	a0,8(sp)
  400ba0:	00431021 	addu	v0,v0,v1
  400ba4:	00441023 	subu	v0,v0,a0
  400ba8:	00451021 	addu	v0,v0,a1
  400bac:	afa20008 	sw	v0,8(sp)
  400bb0:	8fa30000 	lw	v1,0(sp)
  400bb4:	8fa20004 	lw	v0,4(sp)
  400bb8:	8fa40008 	lw	a0,8(sp)
  400bbc:	00621821 	addu	v1,v1,v0
  400bc0:	00641823 	subu	v1,v1,a0
  400bc4:	00651821 	addu	v1,v1,a1
  400bc8:	afa30004 	sw	v1,4(sp)
  400bcc:	8fa20000 	lw	v0,0(sp)
  400bd0:	8fa30004 	lw	v1,4(sp)
  400bd4:	8fa40008 	lw	a0,8(sp)
  400bd8:	00431021 	addu	v0,v0,v1
  400bdc:	00441023 	subu	v0,v0,a0
  400be0:	00451021 	addu	v0,v0,a1
  400be4:	afa20000 	sw	v0,0(sp)
  400be8:	8fa30000 	lw	v1,0(sp)
  400bec:	8fa20004 	lw	v0,4(sp)
  400bf0:	8fa40008 	lw	a0,8(sp)
  400bf4:	00621821 	addu	v1,v1,v0
  400bf8:	00641823 	subu	v1,v1,a0
  400bfc:	00651821 	addu	v1,v1,a1
  400c00:	afa30008 	sw	v1,8(sp)
  400c04:	8fa20000 	lw	v0,0(sp)
  400c08:	8fa30004 	lw	v1,4(sp)
  400c0c:	8fa40008 	lw	a0,8(sp)
  400c10:	00431021 	addu	v0,v0,v1
  400c14:	00441023 	subu	v0,v0,a0
  400c18:	00451021 	addu	v0,v0,a1
  400c1c:	afa20004 	sw	v0,4(sp)
  400c20:	8fa30000 	lw	v1,0(sp)
  400c24:	8fa20004 	lw	v0,4(sp)
  400c28:	8fa40008 	lw	a0,8(sp)
  400c2c:	00621821 	addu	v1,v1,v0
  400c30:	00641823 	subu	v1,v1,a0
  400c34:	00651821 	addu	v1,v1,a1
  400c38:	afa30000 	sw	v1,0(sp)
  400c3c:	8fa20000 	lw	v0,0(sp)
  400c40:	8fa30004 	lw	v1,4(sp)
  400c44:	8fa40008 	lw	a0,8(sp)
  400c48:	00431021 	addu	v0,v0,v1
  400c4c:	00441023 	subu	v0,v0,a0
  400c50:	00451021 	addu	v0,v0,a1
  400c54:	24a50001 	addiu	a1,a1,1
  400c58:	28a30002 	slti	v1,a1,2
  400c5c:	1460ffcd 	bnez	v1,400b94 <func_1+0x36c>
  400c60:	afa20008 	sw	v0,8(sp)
  400c64:	00002821 	move	a1,zero
  400c68:	8fa20000 	lw	v0,0(sp)
  400c6c:	8fa30004 	lw	v1,4(sp)
  400c70:	8fa40008 	lw	a0,8(sp)
  400c74:	00431021 	addu	v0,v0,v1
  400c78:	00441023 	subu	v0,v0,a0
  400c7c:	00451021 	addu	v0,v0,a1
  400c80:	afa20000 	sw	v0,0(sp)
  400c84:	8fa30000 	lw	v1,0(sp)
  400c88:	8fa20004 	lw	v0,4(sp)
  400c8c:	8fa40008 	lw	a0,8(sp)
  400c90:	00621821 	addu	v1,v1,v0
  400c94:	00641823 	subu	v1,v1,a0
  400c98:	00651821 	addu	v1,v1,a1
  400c9c:	afa30008 	sw	v1,8(sp)
  400ca0:	8fa20000 	lw	v0,0(sp)
  400ca4:	8fa30004 	lw	v1,4(sp)
  400ca8:	8fa40008 	lw	a0,8(sp)
  400cac:	00431021 	addu	v0,v0,v1
  400cb0:	00441023 	subu	v0,v0,a0
  400cb4:	00451021 	addu	v0,v0,a1
  400cb8:	afa20004 	sw	v0,4(sp)
  400cbc:	8fa30000 	lw	v1,0(sp)
  400cc0:	8fa20004 	lw	v0,4(sp)
  400cc4:	8fa40008 	lw	a0,8(sp)
  400cc8:	00621821 	addu	v1,v1,v0
  400ccc:	00641823 	subu	v1,v1,a0
  400cd0:	00651821 	addu	v1,v1,a1
  400cd4:	afa30000 	sw	v1,0(sp)
  400cd8:	8fa20000 	lw	v0,0(sp)
  400cdc:	8fa30004 	lw	v1,4(sp)
  400ce0:	8fa40008 	lw	a0,8(sp)
  400ce4:	00431021 	addu	v0,v0,v1
  400ce8:	00441023 	subu	v0,v0,a0
  400cec:	00451021 	addu	v0,v0,a1
  400cf0:	afa20008 	sw	v0,8(sp)
  400cf4:	8fa30000 	lw	v1,0(sp)
  400cf8:	8fa20004 	lw	v0,4(sp)
  400cfc:	8fa40008 	lw	a0,8(sp)
  400d00:	00621821 	addu	v1,v1,v0
  400d04:	00641823 	subu	v1,v1,a0
  400d08:	00651821 	addu	v1,v1,a1
  400d0c:	afa30004 	sw	v1,4(sp)
  400d10:	8fa20000 	lw	v0,0(sp)
  400d14:	8fa30004 	lw	v1,4(sp)
  400d18:	8fa40008 	lw	a0,8(sp)
  400d1c:	00431021 	addu	v0,v0,v1
  400d20:	00441023 	subu	v0,v0,a0
  400d24:	00451021 	addu	v0,v0,a1
  400d28:	afa20000 	sw	v0,0(sp)
  400d2c:	8fa30000 	lw	v1,0(sp)
  400d30:	8fa20004 	lw	v0,4(sp)
  400d34:	8fa40008 	lw	a0,8(sp)
  400d38:	00621821 	addu	v1,v1,v0
  400d3c:	00641823 	subu	v1,v1,a0
  400d40:	00651821 	addu	v1,v1,a1
  400d44:	afa30004 	sw	v1,4(sp)
  400d48:	8fa20000 	lw	v0,0(sp)
  400d4c:	8fa30004 	lw	v1,4(sp)
  400d50:	8fa40008 	lw	a0,8(sp)
  400d54:	00431021 	addu	v0,v0,v1
  400d58:	00441023 	subu	v0,v0,a0
  400d5c:	00451021 	addu	v0,v0,a1
  400d60:	afa20000 	sw	v0,0(sp)
  400d64:	8fa30000 	lw	v1,0(sp)
  400d68:	8fa20004 	lw	v0,4(sp)
  400d6c:	8fa40008 	lw	a0,8(sp)
  400d70:	00621821 	addu	v1,v1,v0
  400d74:	00641823 	subu	v1,v1,a0
  400d78:	00651821 	addu	v1,v1,a1
  400d7c:	afa30008 	sw	v1,8(sp)
  400d80:	8fa20000 	lw	v0,0(sp)
  400d84:	8fa30004 	lw	v1,4(sp)
  400d88:	8fa40008 	lw	a0,8(sp)
  400d8c:	00431021 	addu	v0,v0,v1
  400d90:	00441023 	subu	v0,v0,a0
  400d94:	00451021 	addu	v0,v0,a1
  400d98:	afa20004 	sw	v0,4(sp)
  400d9c:	8fa30000 	lw	v1,0(sp)
  400da0:	8fa20004 	lw	v0,4(sp)
  400da4:	8fa40008 	lw	a0,8(sp)
  400da8:	00621821 	addu	v1,v1,v0
  400dac:	00641823 	subu	v1,v1,a0
  400db0:	00651821 	addu	v1,v1,a1
  400db4:	afa30000 	sw	v1,0(sp)
  400db8:	8fa20000 	lw	v0,0(sp)
  400dbc:	8fa30004 	lw	v1,4(sp)
  400dc0:	8fa40008 	lw	a0,8(sp)
  400dc4:	00431021 	addu	v0,v0,v1
  400dc8:	00441023 	subu	v0,v0,a0
  400dcc:	00451021 	addu	v0,v0,a1
  400dd0:	afa20008 	sw	v0,8(sp)
  400dd4:	8fa30000 	lw	v1,0(sp)
  400dd8:	8fa20004 	lw	v0,4(sp)
  400ddc:	8fa40008 	lw	a0,8(sp)
  400de0:	00621821 	addu	v1,v1,v0
  400de4:	00641823 	subu	v1,v1,a0
  400de8:	00651821 	addu	v1,v1,a1
  400dec:	afa30004 	sw	v1,4(sp)
  400df0:	8fa20000 	lw	v0,0(sp)
  400df4:	8fa30004 	lw	v1,4(sp)
  400df8:	8fa40008 	lw	a0,8(sp)
  400dfc:	00431021 	addu	v0,v0,v1
  400e00:	00441023 	subu	v0,v0,a0
  400e04:	00451021 	addu	v0,v0,a1
  400e08:	afa20000 	sw	v0,0(sp)
  400e0c:	8fa30000 	lw	v1,0(sp)
  400e10:	8fa20004 	lw	v0,4(sp)
  400e14:	8fa40008 	lw	a0,8(sp)
  400e18:	00621821 	addu	v1,v1,v0
  400e1c:	00641823 	subu	v1,v1,a0
  400e20:	00651821 	addu	v1,v1,a1
  400e24:	24a50001 	addiu	a1,a1,1
  400e28:	28a20002 	slti	v0,a1,2
  400e2c:	1440ff8e 	bnez	v0,400c68 <func_1+0x440>
  400e30:	afa30004 	sw	v1,4(sp)
  400e34:	8fa20000 	lw	v0,0(sp)
  400e38:	8fa30004 	lw	v1,4(sp)
  400e3c:	8fa40008 	lw	a0,8(sp)
  400e40:	00431021 	addu	v0,v0,v1
  400e44:	00441021 	addu	v0,v0,a0
  400e48:	03e00008 	jr	ra
  400e4c:	27bd0010 	addiu	sp,sp,16

00400e50 <func_2>:
  400e50:	27bdfff0 	addiu	sp,sp,-16
  400e54:	2402000a 	li	v0,10
  400e58:	afa20000 	sw	v0,0(sp)
  400e5c:	2403000b 	li	v1,11
  400e60:	2402000c 	li	v0,12
  400e64:	afa30004 	sw	v1,4(sp)
  400e68:	00002821 	move	a1,zero
  400e6c:	afa20008 	sw	v0,8(sp)
  400e70:	8fa20000 	lw	v0,0(sp)
  400e74:	8fa30004 	lw	v1,4(sp)
  400e78:	8fa40008 	lw	a0,8(sp)
  400e7c:	00431021 	addu	v0,v0,v1
  400e80:	00441023 	subu	v0,v0,a0
  400e84:	00451021 	addu	v0,v0,a1
  400e88:	afa20000 	sw	v0,0(sp)
  400e8c:	8fa30000 	lw	v1,0(sp)
  400e90:	8fa20004 	lw	v0,4(sp)
  400e94:	8fa40008 	lw	a0,8(sp)
  400e98:	00621821 	addu	v1,v1,v0
  400e9c:	00641823 	subu	v1,v1,a0
  400ea0:	00651821 	addu	v1,v1,a1
  400ea4:	afa30004 	sw	v1,4(sp)
  400ea8:	8fa20000 	lw	v0,0(sp)
  400eac:	8fa30004 	lw	v1,4(sp)
  400eb0:	8fa40008 	lw	a0,8(sp)
  400eb4:	00431021 	addu	v0,v0,v1
  400eb8:	00441023 	subu	v0,v0,a0
  400ebc:	00451021 	addu	v0,v0,a1
  400ec0:	afa20008 	sw	v0,8(sp)
  400ec4:	8fa30000 	lw	v1,0(sp)
  400ec8:	8fa20004 	lw	v0,4(sp)
  400ecc:	8fa40008 	lw	a0,8(sp)
  400ed0:	00621821 	addu	v1,v1,v0
  400ed4:	00641823 	subu	v1,v1,a0
  400ed8:	00651821 	addu	v1,v1,a1
  400edc:	afa30000 	sw	v1,0(sp)
  400ee0:	8fa20000 	lw	v0,0(sp)
  400ee4:	8fa30004 	lw	v1,4(sp)
  400ee8:	8fa40008 	lw	a0,8(sp)
  400eec:	00431021 	addu	v0,v0,v1
  400ef0:	00441023 	subu	v0,v0,a0
  400ef4:	00451021 	addu	v0,v0,a1
  400ef8:	afa20004 	sw	v0,4(sp)
  400efc:	8fa30000 	lw	v1,0(sp)
  400f00:	8fa20004 	lw	v0,4(sp)
  400f04:	8fa40008 	lw	a0,8(sp)
  400f08:	00621821 	addu	v1,v1,v0
  400f0c:	00641823 	subu	v1,v1,a0
  400f10:	00651821 	addu	v1,v1,a1
  400f14:	afa30008 	sw	v1,8(sp)
  400f18:	8fa20000 	lw	v0,0(sp)
  400f1c:	8fa30004 	lw	v1,4(sp)
  400f20:	8fa40008 	lw	a0,8(sp)
  400f24:	00431021 	addu	v0,v0,v1
  400f28:	00441023 	subu	v0,v0,a0
  400f2c:	00451021 	addu	v0,v0,a1
  400f30:	afa20000 	sw	v0,0(sp)
  400f34:	8fa30000 	lw	v1,0(sp)
  400f38:	8fa20004 	lw	v0,4(sp)
  400f3c:	8fa40008 	lw	a0,8(sp)
  400f40:	00621821 	addu	v1,v1,v0
  400f44:	00641823 	subu	v1,v1,a0
  400f48:	00651821 	addu	v1,v1,a1
  400f4c:	afa30004 	sw	v1,4(sp)
  400f50:	8fa20000 	lw	v0,0(sp)
  400f54:	8fa30004 	lw	v1,4(sp)
  400f58:	8fa40008 	lw	a0,8(sp)
  400f5c:	00431021 	addu	v0,v0,v1
  400f60:	00441023 	subu	v0,v0,a0
  400f64:	00451021 	addu	v0,v0,a1
  400f68:	afa20008 	sw	v0,8(sp)
  400f6c:	8fa30000 	lw	v1,0(sp)
  400f70:	8fa20004 	lw	v0,4(sp)
  400f74:	8fa40008 	lw	a0,8(sp)
  400f78:	00621821 	addu	v1,v1,v0
  400f7c:	00641823 	subu	v1,v1,a0
  400f80:	00651821 	addu	v1,v1,a1
  400f84:	afa30000 	sw	v1,0(sp)
  400f88:	8fa20000 	lw	v0,0(sp)
  400f8c:	8fa30004 	lw	v1,4(sp)
  400f90:	8fa40008 	lw	a0,8(sp)
  400f94:	00431021 	addu	v0,v0,v1
  400f98:	00441023 	subu	v0,v0,a0
  400f9c:	00451021 	addu	v0,v0,a1
  400fa0:	afa20004 	sw	v0,4(sp)
  400fa4:	8fa30000 	lw	v1,0(sp)
  400fa8:	8fa20004 	lw	v0,4(sp)
  400fac:	8fa40008 	lw	a0,8(sp)
  400fb0:	00621821 	addu	v1,v1,v0
  400fb4:	00641823 	subu	v1,v1,a0
  400fb8:	00651821 	addu	v1,v1,a1
  400fbc:	afa30008 	sw	v1,8(sp)
  400fc0:	8fa20000 	lw	v0,0(sp)
  400fc4:	8fa30004 	lw	v1,4(sp)
  400fc8:	8fa40008 	lw	a0,8(sp)
  400fcc:	00431021 	addu	v0,v0,v1
  400fd0:	00441023 	subu	v0,v0,a0
  400fd4:	00451021 	addu	v0,v0,a1
  400fd8:	afa20000 	sw	v0,0(sp)
  400fdc:	8fa30000 	lw	v1,0(sp)
  400fe0:	8fa20004 	lw	v0,4(sp)
  400fe4:	8fa40008 	lw	a0,8(sp)
  400fe8:	00621821 	addu	v1,v1,v0
  400fec:	00641823 	subu	v1,v1,a0
  400ff0:	00651821 	addu	v1,v1,a1
  400ff4:	afa30004 	sw	v1,4(sp)
  400ff8:	8fa20000 	lw	v0,0(sp)
  400ffc:	8fa30004 	lw	v1,4(sp)
  401000:	8fa40008 	lw	a0,8(sp)
  401004:	00431021 	addu	v0,v0,v1
  401008:	00441023 	subu	v0,v0,a0
  40100c:	00451021 	addu	v0,v0,a1
  401010:	afa20008 	sw	v0,8(sp)
  401014:	8fa30000 	lw	v1,0(sp)
  401018:	8fa20004 	lw	v0,4(sp)
  40101c:	8fa40008 	lw	a0,8(sp)
  401020:	00621821 	addu	v1,v1,v0
  401024:	00641823 	subu	v1,v1,a0
  401028:	00651821 	addu	v1,v1,a1
  40102c:	24a50001 	addiu	a1,a1,1
  401030:	28a20002 	slti	v0,a1,2
  401034:	1440ff8e 	bnez	v0,400e70 <func_2+0x20>
  401038:	afa30000 	sw	v1,0(sp)
  40103c:	00002821 	move	a1,zero
  401040:	8fa20000 	lw	v0,0(sp)
  401044:	8fa30004 	lw	v1,4(sp)
  401048:	8fa40008 	lw	a0,8(sp)
  40104c:	00431021 	addu	v0,v0,v1
  401050:	00441023 	subu	v0,v0,a0
  401054:	00451021 	addu	v0,v0,a1
  401058:	afa20004 	sw	v0,4(sp)
  40105c:	8fa30000 	lw	v1,0(sp)
  401060:	8fa20004 	lw	v0,4(sp)
  401064:	8fa40008 	lw	a0,8(sp)
  401068:	00621821 	addu	v1,v1,v0
  40106c:	00641823 	subu	v1,v1,a0
  401070:	00651821 	addu	v1,v1,a1
  401074:	afa30000 	sw	v1,0(sp)
  401078:	8fa20000 	lw	v0,0(sp)
  40107c:	8fa30004 	lw	v1,4(sp)
  401080:	8fa40008 	lw	a0,8(sp)
  401084:	00431021 	addu	v0,v0,v1
  401088:	00441023 	subu	v0,v0,a0
  40108c:	00451021 	addu	v0,v0,a1
  401090:	afa20008 	sw	v0,8(sp)
  401094:	8fa30000 	lw	v1,0(sp)
  401098:	8fa20004 	lw	v0,4(sp)
  40109c:	8fa40008 	lw	a0,8(sp)
  4010a0:	00621821 	addu	v1,v1,v0
  4010a4:	00641823 	subu	v1,v1,a0
  4010a8:	00651821 	addu	v1,v1,a1
  4010ac:	afa30004 	sw	v1,4(sp)
  4010b0:	8fa20000 	lw	v0,0(sp)
  4010b4:	8fa30004 	lw	v1,4(sp)
  4010b8:	8fa40008 	lw	a0,8(sp)
  4010bc:	00431021 	addu	v0,v0,v1
  4010c0:	00441023 	subu	v0,v0,a0
  4010c4:	00451021 	addu	v0,v0,a1
  4010c8:	afa20004 	sw	v0,4(sp)
  4010cc:	8fa30000 	lw	v1,0(sp)
  4010d0:	8fa20004 	lw	v0,4(sp)
  4010d4:	8fa40008 	lw	a0,8(sp)
  4010d8:	00621821 	addu	v1,v1,v0
  4010dc:	00641823 	subu	v1,v1,a0
  4010e0:	00651821 	addu	v1,v1,a1
  4010e4:	afa30000 	sw	v1,0(sp)
  4010e8:	8fa20000 	lw	v0,0(sp)
  4010ec:	8fa30004 	lw	v1,4(sp)
  4010f0:	8fa40008 	lw	a0,8(sp)
  4010f4:	00431021 	addu	v0,v0,v1
  4010f8:	00441023 	subu	v0,v0,a0
  4010fc:	00451021 	addu	v0,v0,a1
  401100:	afa20008 	sw	v0,8(sp)
  401104:	8fa30000 	lw	v1,0(sp)
  401108:	8fa20004 	lw	v0,4(sp)
  40110c:	8fa40008 	lw	a0,8(sp)
  401110:	00621821 	addu	v1,v1,v0
  401114:	00641823 	subu	v1,v1,a0
  401118:	00651821 	addu	v1,v1,a1
  40111c:	afa30004 	sw	v1,4(sp)
  401120:	8fa20000 	lw	v0,0(sp)
  401124:	8fa30004 	lw	v1,4(sp)
  401128:	8fa40008 	lw	a0,8(sp)
  40112c:	00431021 	addu	v0,v0,v1
  401130:	00441023 	subu	v0,v0,a0
  401134:	00451021 	addu	v0,v0,a1
  401138:	afa20000 	sw	v0,0(sp)
  40113c:	8fa30000 	lw	v1,0(sp)
  401140:	8fa20004 	lw	v0,4(sp)
  401144:	8fa40008 	lw	a0,8(sp)
  401148:	00621821 	addu	v1,v1,v0
  40114c:	00641823 	subu	v1,v1,a0
  401150:	00651821 	addu	v1,v1,a1
  401154:	afa30008 	sw	v1,8(sp)
  401158:	8fa20000 	lw	v0,0(sp)
  40115c:	8fa30004 	lw	v1,4(sp)
  401160:	8fa40008 	lw	a0,8(sp)
  401164:	00431021 	addu	v0,v0,v1
  401168:	00441023 	subu	v0,v0,a0
  40116c:	00451021 	addu	v0,v0,a1
  401170:	afa20004 	sw	v0,4(sp)
  401174:	8fa30000 	lw	v1,0(sp)
  401178:	8fa20004 	lw	v0,4(sp)
  40117c:	8fa40008 	lw	a0,8(sp)
  401180:	00621821 	addu	v1,v1,v0
  401184:	00641823 	subu	v1,v1,a0
  401188:	00651821 	addu	v1,v1,a1
  40118c:	afa30000 	sw	v1,0(sp)
  401190:	8fa20000 	lw	v0,0(sp)
  401194:	8fa30004 	lw	v1,4(sp)
  401198:	8fa40008 	lw	a0,8(sp)
  40119c:	00431021 	addu	v0,v0,v1
  4011a0:	00441023 	subu	v0,v0,a0
  4011a4:	00451021 	addu	v0,v0,a1
  4011a8:	24a50001 	addiu	a1,a1,1
  4011ac:	28a30002 	slti	v1,a1,2
  4011b0:	1460ffa3 	bnez	v1,401040 <func_2+0x1f0>
  4011b4:	afa20008 	sw	v0,8(sp)
  4011b8:	00002821 	move	a1,zero
  4011bc:	8fa20000 	lw	v0,0(sp)
  4011c0:	8fa30004 	lw	v1,4(sp)
  4011c4:	8fa40008 	lw	a0,8(sp)
  4011c8:	00431021 	addu	v0,v0,v1
  4011cc:	00441023 	subu	v0,v0,a0
  4011d0:	00451021 	addu	v0,v0,a1
  4011d4:	afa20008 	sw	v0,8(sp)
  4011d8:	8fa30000 	lw	v1,0(sp)
  4011dc:	8fa20004 	lw	v0,4(sp)
  4011e0:	8fa40008 	lw	a0,8(sp)
  4011e4:	00621821 	addu	v1,v1,v0
  4011e8:	00641823 	subu	v1,v1,a0
  4011ec:	00651821 	addu	v1,v1,a1
  4011f0:	afa30004 	sw	v1,4(sp)
  4011f4:	8fa20000 	lw	v0,0(sp)
  4011f8:	8fa30004 	lw	v1,4(sp)
  4011fc:	8fa40008 	lw	a0,8(sp)
  401200:	00431021 	addu	v0,v0,v1
  401204:	00441023 	subu	v0,v0,a0
  401208:	00451021 	addu	v0,v0,a1
  40120c:	afa20000 	sw	v0,0(sp)
  401210:	8fa30000 	lw	v1,0(sp)
  401214:	8fa20004 	lw	v0,4(sp)
  401218:	8fa40008 	lw	a0,8(sp)
  40121c:	00621821 	addu	v1,v1,v0
  401220:	00641823 	subu	v1,v1,a0
  401224:	00651821 	addu	v1,v1,a1
  401228:	afa30008 	sw	v1,8(sp)
  40122c:	8fa20000 	lw	v0,0(sp)
  401230:	8fa30004 	lw	v1,4(sp)
  401234:	8fa40008 	lw	a0,8(sp)
  401238:	00431021 	addu	v0,v0,v1
  40123c:	00441023 	subu	v0,v0,a0
  401240:	00451021 	addu	v0,v0,a1
  401244:	afa20004 	sw	v0,4(sp)
  401248:	8fa30000 	lw	v1,0(sp)
  40124c:	8fa20004 	lw	v0,4(sp)
  401250:	8fa40008 	lw	a0,8(sp)
  401254:	00621821 	addu	v1,v1,v0
  401258:	00641823 	subu	v1,v1,a0
  40125c:	00651821 	addu	v1,v1,a1
  401260:	afa30000 	sw	v1,0(sp)
  401264:	8fa20000 	lw	v0,0(sp)
  401268:	8fa30004 	lw	v1,4(sp)
  40126c:	8fa40008 	lw	a0,8(sp)
  401270:	00431021 	addu	v0,v0,v1
  401274:	00441023 	subu	v0,v0,a0
  401278:	00451021 	addu	v0,v0,a1
  40127c:	24a50001 	addiu	a1,a1,1
  401280:	28a30002 	slti	v1,a1,2
  401284:	1460ffcd 	bnez	v1,4011bc <func_2+0x36c>
  401288:	afa20008 	sw	v0,8(sp)
  40128c:	00002821 	move	a1,zero
  401290:	8fa20000 	lw	v0,0(sp)
  401294:	8fa30004 	lw	v1,4(sp)
  401298:	8fa40008 	lw	a0,8(sp)
  40129c:	00431021 	addu	v0,v0,v1
  4012a0:	00441023 	subu	v0,v0,a0
  4012a4:	00451021 	addu	v0,v0,a1
  4012a8:	afa20000 	sw	v0,0(sp)
  4012ac:	8fa30000 	lw	v1,0(sp)
  4012b0:	8fa20004 	lw	v0,4(sp)
  4012b4:	8fa40008 	lw	a0,8(sp)
  4012b8:	00621821 	addu	v1,v1,v0
  4012bc:	00641823 	subu	v1,v1,a0
  4012c0:	00651821 	addu	v1,v1,a1
  4012c4:	afa30008 	sw	v1,8(sp)
  4012c8:	8fa20000 	lw	v0,0(sp)
  4012cc:	8fa30004 	lw	v1,4(sp)
  4012d0:	8fa40008 	lw	a0,8(sp)
  4012d4:	00431021 	addu	v0,v0,v1
  4012d8:	00441023 	subu	v0,v0,a0
  4012dc:	00451021 	addu	v0,v0,a1
  4012e0:	afa20004 	sw	v0,4(sp)
  4012e4:	8fa30000 	lw	v1,0(sp)
  4012e8:	8fa20004 	lw	v0,4(sp)
  4012ec:	8fa40008 	lw	a0,8(sp)
  4012f0:	00621821 	addu	v1,v1,v0
  4012f4:	00641823 	subu	v1,v1,a0
  4012f8:	00651821 	addu	v1,v1,a1
  4012fc:	afa30000 	sw	v1,0(sp)
  401300:	8fa20000 	lw	v0,0(sp)
  401304:	8fa30004 	lw	v1,4(sp)
  401308:	8fa40008 	lw	a0,8(sp)
  40130c:	00431021 	addu	v0,v0,v1
  401310:	00441023 	subu	v0,v0,a0
  401314:	00451021 	addu	v0,v0,a1
  401318:	afa20008 	sw	v0,8(sp)
  40131c:	8fa30000 	lw	v1,0(sp)
  401320:	8fa20004 	lw	v0,4(sp)
  401324:	8fa40008 	lw	a0,8(sp)
  401328:	00621821 	addu	v1,v1,v0
  40132c:	00641823 	subu	v1,v1,a0
  401330:	00651821 	addu	v1,v1,a1
  401334:	afa30004 	sw	v1,4(sp)
  401338:	8fa20000 	lw	v0,0(sp)
  40133c:	8fa30004 	lw	v1,4(sp)
  401340:	8fa40008 	lw	a0,8(sp)
  401344:	00431021 	addu	v0,v0,v1
  401348:	00441023 	subu	v0,v0,a0
  40134c:	00451021 	addu	v0,v0,a1
  401350:	afa20000 	sw	v0,0(sp)
  401354:	8fa30000 	lw	v1,0(sp)
  401358:	8fa20004 	lw	v0,4(sp)
  40135c:	8fa40008 	lw	a0,8(sp)
  401360:	00621821 	addu	v1,v1,v0
  401364:	00641823 	subu	v1,v1,a0
  401368:	00651821 	addu	v1,v1,a1
  40136c:	afa30004 	sw	v1,4(sp)
  401370:	8fa20000 	lw	v0,0(sp)
  401374:	8fa30004 	lw	v1,4(sp)
  401378:	8fa40008 	lw	a0,8(sp)
  40137c:	00431021 	addu	v0,v0,v1
  401380:	00441023 	subu	v0,v0,a0
  401384:	00451021 	addu	v0,v0,a1
  401388:	afa20000 	sw	v0,0(sp)
  40138c:	8fa30000 	lw	v1,0(sp)
  401390:	8fa20004 	lw	v0,4(sp)
  401394:	8fa40008 	lw	a0,8(sp)
  401398:	00621821 	addu	v1,v1,v0
  40139c:	00641823 	subu	v1,v1,a0
  4013a0:	00651821 	addu	v1,v1,a1
  4013a4:	afa30008 	sw	v1,8(sp)
  4013a8:	8fa20000 	lw	v0,0(sp)
  4013ac:	8fa30004 	lw	v1,4(sp)
  4013b0:	8fa40008 	lw	a0,8(sp)
  4013b4:	00431021 	addu	v0,v0,v1
  4013b8:	00441023 	subu	v0,v0,a0
  4013bc:	00451021 	addu	v0,v0,a1
  4013c0:	afa20004 	sw	v0,4(sp)
  4013c4:	8fa30000 	lw	v1,0(sp)
  4013c8:	8fa20004 	lw	v0,4(sp)
  4013cc:	8fa40008 	lw	a0,8(sp)
  4013d0:	00621821 	addu	v1,v1,v0
  4013d4:	00641823 	subu	v1,v1,a0
  4013d8:	00651821 	addu	v1,v1,a1
  4013dc:	afa30000 	sw	v1,0(sp)
  4013e0:	8fa20000 	lw	v0,0(sp)
  4013e4:	8fa30004 	lw	v1,4(sp)
  4013e8:	8fa40008 	lw	a0,8(sp)
  4013ec:	00431021 	addu	v0,v0,v1
  4013f0:	00441023 	subu	v0,v0,a0
  4013f4:	00451021 	addu	v0,v0,a1
  4013f8:	afa20008 	sw	v0,8(sp)
  4013fc:	8fa30000 	lw	v1,0(sp)
  401400:	8fa20004 	lw	v0,4(sp)
  401404:	8fa40008 	lw	a0,8(sp)
  401408:	00621821 	addu	v1,v1,v0
  40140c:	00641823 	subu	v1,v1,a0
  401410:	00651821 	addu	v1,v1,a1
  401414:	afa30004 	sw	v1,4(sp)
  401418:	8fa20000 	lw	v0,0(sp)
  40141c:	8fa30004 	lw	v1,4(sp)
  401420:	8fa40008 	lw	a0,8(sp)
  401424:	00431021 	addu	v0,v0,v1
  401428:	00441023 	subu	v0,v0,a0
  40142c:	00451021 	addu	v0,v0,a1
  401430:	afa20000 	sw	v0,0(sp)
  401434:	8fa30000 	lw	v1,0(sp)
  401438:	8fa20004 	lw	v0,4(sp)
  40143c:	8fa40008 	lw	a0,8(sp)
  401440:	00621821 	addu	v1,v1,v0
  401444:	00641823 	subu	v1,v1,a0
  401448:	00651821 	addu	v1,v1,a1
  40144c:	24a50001 	addiu	a1,a1,1
  401450:	28a20002 	slti	v0,a1,2
  401454:	1440ff8e 	bnez	v0,401290 <func_2+0x440>
  401458:	afa30004 	sw	v1,4(sp)
  40145c:	8fa20000 	lw	v0,0(sp)
  401460:	8fa30004 	lw	v1,4(sp)
  401464:	8fa40008 	lw	a0,8(sp)
  401468:	00431021 	addu	v0,v0,v1
  40146c:	00441021 	addu	v0,v0,a0
  401470:	03e00008 	jr	ra
  401474:	27bd0010 	addiu	sp,sp,16

00401478 <func_3>:
  401478:	27bdfff0 	addiu	sp,sp,-16
  40147c:	2402000a 	li	v0,10
  401480:	afa20000 	sw	v0,0(sp)
  401484:	2403000b 	li	v1,11
  401488:	2402000c 	li	v0,12
  40148c:	afa30004 	sw	v1,4(sp)
  401490:	00002821 	move	a1,zero
  401494:	afa20008 	sw	v0,8(sp)
  401498:	8fa20000 	lw	v0,0(sp)
  40149c:	8fa30004 	lw	v1,4(sp)
  4014a0:	8fa40008 	lw	a0,8(sp)
  4014a4:	00431021 	addu	v0,v0,v1
  4014a8:	00441023 	subu	v0,v0,a0
  4014ac:	00451021 	addu	v0,v0,a1
  4014b0:	afa20000 	sw	v0,0(sp)
  4014b4:	8fa30000 	lw	v1,0(sp)
  4014b8:	8fa20004 	lw	v0,4(sp)
  4014bc:	8fa40008 	lw	a0,8(sp)
  4014c0:	00621821 	addu	v1,v1,v0
  4014c4:	00641823 	subu	v1,v1,a0
  4014c8:	00651821 	addu	v1,v1,a1
  4014cc:	afa30004 	sw	v1,4(sp)
  4014d0:	8fa20000 	lw	v0,0(sp)
  4014d4:	8fa30004 	lw	v1,4(sp)
  4014d8:	8fa40008 	lw	a0,8(sp)
  4014dc:	00431021 	addu	v0,v0,v1
  4014e0:	00441023 	subu	v0,v0,a0
  4014e4:	00451021 	addu	v0,v0,a1
  4014e8:	afa20008 	sw	v0,8(sp)
  4014ec:	8fa30000 	lw	v1,0(sp)
  4014f0:	8fa20004 	lw	v0,4(sp)
  4014f4:	8fa40008 	lw	a0,8(sp)
  4014f8:	00621821 	addu	v1,v1,v0
  4014fc:	00641823 	subu	v1,v1,a0
  401500:	00651821 	addu	v1,v1,a1
  401504:	afa30000 	sw	v1,0(sp)
  401508:	8fa20000 	lw	v0,0(sp)
  40150c:	8fa30004 	lw	v1,4(sp)
  401510:	8fa40008 	lw	a0,8(sp)
  401514:	00431021 	addu	v0,v0,v1
  401518:	00441023 	subu	v0,v0,a0
  40151c:	00451021 	addu	v0,v0,a1
  401520:	afa20004 	sw	v0,4(sp)
  401524:	8fa30000 	lw	v1,0(sp)
  401528:	8fa20004 	lw	v0,4(sp)
  40152c:	8fa40008 	lw	a0,8(sp)
  401530:	00621821 	addu	v1,v1,v0
  401534:	00641823 	subu	v1,v1,a0
  401538:	00651821 	addu	v1,v1,a1
  40153c:	afa30008 	sw	v1,8(sp)
  401540:	8fa20000 	lw	v0,0(sp)
  401544:	8fa30004 	lw	v1,4(sp)
  401548:	8fa40008 	lw	a0,8(sp)
  40154c:	00431021 	addu	v0,v0,v1
  401550:	00441023 	subu	v0,v0,a0
  401554:	00451021 	addu	v0,v0,a1
  401558:	afa20000 	sw	v0,0(sp)
  40155c:	8fa30000 	lw	v1,0(sp)
  401560:	8fa20004 	lw	v0,4(sp)
  401564:	8fa40008 	lw	a0,8(sp)
  401568:	00621821 	addu	v1,v1,v0
  40156c:	00641823 	subu	v1,v1,a0
  401570:	00651821 	addu	v1,v1,a1
  401574:	afa30004 	sw	v1,4(sp)
  401578:	8fa20000 	lw	v0,0(sp)
  40157c:	8fa30004 	lw	v1,4(sp)
  401580:	8fa40008 	lw	a0,8(sp)
  401584:	00431021 	addu	v0,v0,v1
  401588:	00441023 	subu	v0,v0,a0
  40158c:	00451021 	addu	v0,v0,a1
  401590:	afa20008 	sw	v0,8(sp)
  401594:	8fa30000 	lw	v1,0(sp)
  401598:	8fa20004 	lw	v0,4(sp)
  40159c:	8fa40008 	lw	a0,8(sp)
  4015a0:	00621821 	addu	v1,v1,v0
  4015a4:	00641823 	subu	v1,v1,a0
  4015a8:	00651821 	addu	v1,v1,a1
  4015ac:	afa30000 	sw	v1,0(sp)
  4015b0:	8fa20000 	lw	v0,0(sp)
  4015b4:	8fa30004 	lw	v1,4(sp)
  4015b8:	8fa40008 	lw	a0,8(sp)
  4015bc:	00431021 	addu	v0,v0,v1
  4015c0:	00441023 	subu	v0,v0,a0
  4015c4:	00451021 	addu	v0,v0,a1
  4015c8:	afa20004 	sw	v0,4(sp)
  4015cc:	8fa30000 	lw	v1,0(sp)
  4015d0:	8fa20004 	lw	v0,4(sp)
  4015d4:	8fa40008 	lw	a0,8(sp)
  4015d8:	00621821 	addu	v1,v1,v0
  4015dc:	00641823 	subu	v1,v1,a0
  4015e0:	00651821 	addu	v1,v1,a1
  4015e4:	afa30008 	sw	v1,8(sp)
  4015e8:	8fa20000 	lw	v0,0(sp)
  4015ec:	8fa30004 	lw	v1,4(sp)
  4015f0:	8fa40008 	lw	a0,8(sp)
  4015f4:	00431021 	addu	v0,v0,v1
  4015f8:	00441023 	subu	v0,v0,a0
  4015fc:	00451021 	addu	v0,v0,a1
  401600:	afa20000 	sw	v0,0(sp)
  401604:	8fa30000 	lw	v1,0(sp)
  401608:	8fa20004 	lw	v0,4(sp)
  40160c:	8fa40008 	lw	a0,8(sp)
  401610:	00621821 	addu	v1,v1,v0
  401614:	00641823 	subu	v1,v1,a0
  401618:	00651821 	addu	v1,v1,a1
  40161c:	afa30004 	sw	v1,4(sp)
  401620:	8fa20000 	lw	v0,0(sp)
  401624:	8fa30004 	lw	v1,4(sp)
  401628:	8fa40008 	lw	a0,8(sp)
  40162c:	00431021 	addu	v0,v0,v1
  401630:	00441023 	subu	v0,v0,a0
  401634:	00451021 	addu	v0,v0,a1
  401638:	afa20008 	sw	v0,8(sp)
  40163c:	8fa30000 	lw	v1,0(sp)
  401640:	8fa20004 	lw	v0,4(sp)
  401644:	8fa40008 	lw	a0,8(sp)
  401648:	00621821 	addu	v1,v1,v0
  40164c:	00641823 	subu	v1,v1,a0
  401650:	00651821 	addu	v1,v1,a1
  401654:	24a50001 	addiu	a1,a1,1
  401658:	28a20002 	slti	v0,a1,2
  40165c:	1440ff8e 	bnez	v0,401498 <func_3+0x20>
  401660:	afa30000 	sw	v1,0(sp)
  401664:	00002821 	move	a1,zero
  401668:	8fa20000 	lw	v0,0(sp)
  40166c:	8fa30004 	lw	v1,4(sp)
  401670:	8fa40008 	lw	a0,8(sp)
  401674:	00431021 	addu	v0,v0,v1
  401678:	00441023 	subu	v0,v0,a0
  40167c:	00451021 	addu	v0,v0,a1
  401680:	afa20004 	sw	v0,4(sp)
  401684:	8fa30000 	lw	v1,0(sp)
  401688:	8fa20004 	lw	v0,4(sp)
  40168c:	8fa40008 	lw	a0,8(sp)
  401690:	00621821 	addu	v1,v1,v0
  401694:	00641823 	subu	v1,v1,a0
  401698:	00651821 	addu	v1,v1,a1
  40169c:	afa30000 	sw	v1,0(sp)
  4016a0:	8fa20000 	lw	v0,0(sp)
  4016a4:	8fa30004 	lw	v1,4(sp)
  4016a8:	8fa40008 	lw	a0,8(sp)
  4016ac:	00431021 	addu	v0,v0,v1
  4016b0:	00441023 	subu	v0,v0,a0
  4016b4:	00451021 	addu	v0,v0,a1
  4016b8:	afa20008 	sw	v0,8(sp)
  4016bc:	8fa30000 	lw	v1,0(sp)
  4016c0:	8fa20004 	lw	v0,4(sp)
  4016c4:	8fa40008 	lw	a0,8(sp)
  4016c8:	00621821 	addu	v1,v1,v0
  4016cc:	00641823 	subu	v1,v1,a0
  4016d0:	00651821 	addu	v1,v1,a1
  4016d4:	afa30004 	sw	v1,4(sp)
  4016d8:	8fa20000 	lw	v0,0(sp)
  4016dc:	8fa30004 	lw	v1,4(sp)
  4016e0:	8fa40008 	lw	a0,8(sp)
  4016e4:	00431021 	addu	v0,v0,v1
  4016e8:	00441023 	subu	v0,v0,a0
  4016ec:	00451021 	addu	v0,v0,a1
  4016f0:	afa20004 	sw	v0,4(sp)
  4016f4:	8fa30000 	lw	v1,0(sp)
  4016f8:	8fa20004 	lw	v0,4(sp)
  4016fc:	8fa40008 	lw	a0,8(sp)
  401700:	00621821 	addu	v1,v1,v0
  401704:	00641823 	subu	v1,v1,a0
  401708:	00651821 	addu	v1,v1,a1
  40170c:	afa30000 	sw	v1,0(sp)
  401710:	8fa20000 	lw	v0,0(sp)
  401714:	8fa30004 	lw	v1,4(sp)
  401718:	8fa40008 	lw	a0,8(sp)
  40171c:	00431021 	addu	v0,v0,v1
  401720:	00441023 	subu	v0,v0,a0
  401724:	00451021 	addu	v0,v0,a1
  401728:	afa20008 	sw	v0,8(sp)
  40172c:	8fa30000 	lw	v1,0(sp)
  401730:	8fa20004 	lw	v0,4(sp)
  401734:	8fa40008 	lw	a0,8(sp)
  401738:	00621821 	addu	v1,v1,v0
  40173c:	00641823 	subu	v1,v1,a0
  401740:	00651821 	addu	v1,v1,a1
  401744:	afa30004 	sw	v1,4(sp)
  401748:	8fa20000 	lw	v0,0(sp)
  40174c:	8fa30004 	lw	v1,4(sp)
  401750:	8fa40008 	lw	a0,8(sp)
  401754:	00431021 	addu	v0,v0,v1
  401758:	00441023 	subu	v0,v0,a0
  40175c:	00451021 	addu	v0,v0,a1
  401760:	afa20000 	sw	v0,0(sp)
  401764:	8fa30000 	lw	v1,0(sp)
  401768:	8fa20004 	lw	v0,4(sp)
  40176c:	8fa40008 	lw	a0,8(sp)
  401770:	00621821 	addu	v1,v1,v0
  401774:	00641823 	subu	v1,v1,a0
  401778:	00651821 	addu	v1,v1,a1
  40177c:	afa30008 	sw	v1,8(sp)
  401780:	8fa20000 	lw	v0,0(sp)
  401784:	8fa30004 	lw	v1,4(sp)
  401788:	8fa40008 	lw	a0,8(sp)
  40178c:	00431021 	addu	v0,v0,v1
  401790:	00441023 	subu	v0,v0,a0
  401794:	00451021 	addu	v0,v0,a1
  401798:	afa20004 	sw	v0,4(sp)
  40179c:	8fa30000 	lw	v1,0(sp)
  4017a0:	8fa20004 	lw	v0,4(sp)
  4017a4:	8fa40008 	lw	a0,8(sp)
  4017a8:	00621821 	addu	v1,v1,v0
  4017ac:	00641823 	subu	v1,v1,a0
  4017b0:	00651821 	addu	v1,v1,a1
  4017b4:	afa30000 	sw	v1,0(sp)
  4017b8:	8fa20000 	lw	v0,0(sp)
  4017bc:	8fa30004 	lw	v1,4(sp)
  4017c0:	8fa40008 	lw	a0,8(sp)
  4017c4:	00431021 	addu	v0,v0,v1
  4017c8:	00441023 	subu	v0,v0,a0
  4017cc:	00451021 	addu	v0,v0,a1
  4017d0:	24a50001 	addiu	a1,a1,1
  4017d4:	28a30002 	slti	v1,a1,2
  4017d8:	1460ffa3 	bnez	v1,401668 <func_3+0x1f0>
  4017dc:	afa20008 	sw	v0,8(sp)
  4017e0:	00002821 	move	a1,zero
  4017e4:	8fa20000 	lw	v0,0(sp)
  4017e8:	8fa30004 	lw	v1,4(sp)
  4017ec:	8fa40008 	lw	a0,8(sp)
  4017f0:	00431021 	addu	v0,v0,v1
  4017f4:	00441023 	subu	v0,v0,a0
  4017f8:	00451021 	addu	v0,v0,a1
  4017fc:	afa20008 	sw	v0,8(sp)
  401800:	8fa30000 	lw	v1,0(sp)
  401804:	8fa20004 	lw	v0,4(sp)
  401808:	8fa40008 	lw	a0,8(sp)
  40180c:	00621821 	addu	v1,v1,v0
  401810:	00641823 	subu	v1,v1,a0
  401814:	00651821 	addu	v1,v1,a1
  401818:	afa30004 	sw	v1,4(sp)
  40181c:	8fa20000 	lw	v0,0(sp)
  401820:	8fa30004 	lw	v1,4(sp)
  401824:	8fa40008 	lw	a0,8(sp)
  401828:	00431021 	addu	v0,v0,v1
  40182c:	00441023 	subu	v0,v0,a0
  401830:	00451021 	addu	v0,v0,a1
  401834:	afa20000 	sw	v0,0(sp)
  401838:	8fa30000 	lw	v1,0(sp)
  40183c:	8fa20004 	lw	v0,4(sp)
  401840:	8fa40008 	lw	a0,8(sp)
  401844:	00621821 	addu	v1,v1,v0
  401848:	00641823 	subu	v1,v1,a0
  40184c:	00651821 	addu	v1,v1,a1
  401850:	afa30008 	sw	v1,8(sp)
  401854:	8fa20000 	lw	v0,0(sp)
  401858:	8fa30004 	lw	v1,4(sp)
  40185c:	8fa40008 	lw	a0,8(sp)
  401860:	00431021 	addu	v0,v0,v1
  401864:	00441023 	subu	v0,v0,a0
  401868:	00451021 	addu	v0,v0,a1
  40186c:	afa20004 	sw	v0,4(sp)
  401870:	8fa30000 	lw	v1,0(sp)
  401874:	8fa20004 	lw	v0,4(sp)
  401878:	8fa40008 	lw	a0,8(sp)
  40187c:	00621821 	addu	v1,v1,v0
  401880:	00641823 	subu	v1,v1,a0
  401884:	00651821 	addu	v1,v1,a1
  401888:	afa30000 	sw	v1,0(sp)
  40188c:	8fa20000 	lw	v0,0(sp)
  401890:	8fa30004 	lw	v1,4(sp)
  401894:	8fa40008 	lw	a0,8(sp)
  401898:	00431021 	addu	v0,v0,v1
  40189c:	00441023 	subu	v0,v0,a0
  4018a0:	00451021 	addu	v0,v0,a1
  4018a4:	24a50001 	addiu	a1,a1,1
  4018a8:	28a30002 	slti	v1,a1,2
  4018ac:	1460ffcd 	bnez	v1,4017e4 <func_3+0x36c>
  4018b0:	afa20008 	sw	v0,8(sp)
  4018b4:	00002821 	move	a1,zero
  4018b8:	8fa20000 	lw	v0,0(sp)
  4018bc:	8fa30004 	lw	v1,4(sp)
  4018c0:	8fa40008 	lw	a0,8(sp)
  4018c4:	00431021 	addu	v0,v0,v1
  4018c8:	00441023 	subu	v0,v0,a0
  4018cc:	00451021 	addu	v0,v0,a1
  4018d0:	afa20000 	sw	v0,0(sp)
  4018d4:	8fa30000 	lw	v1,0(sp)
  4018d8:	8fa20004 	lw	v0,4(sp)
  4018dc:	8fa40008 	lw	a0,8(sp)
  4018e0:	00621821 	addu	v1,v1,v0
  4018e4:	00641823 	subu	v1,v1,a0
  4018e8:	00651821 	addu	v1,v1,a1
  4018ec:	afa30008 	sw	v1,8(sp)
  4018f0:	8fa20000 	lw	v0,0(sp)
  4018f4:	8fa30004 	lw	v1,4(sp)
  4018f8:	8fa40008 	lw	a0,8(sp)
  4018fc:	00431021 	addu	v0,v0,v1
  401900:	00441023 	subu	v0,v0,a0
  401904:	00451021 	addu	v0,v0,a1
  401908:	afa20004 	sw	v0,4(sp)
  40190c:	8fa30000 	lw	v1,0(sp)
  401910:	8fa20004 	lw	v0,4(sp)
  401914:	8fa40008 	lw	a0,8(sp)
  401918:	00621821 	addu	v1,v1,v0
  40191c:	00641823 	subu	v1,v1,a0
  401920:	00651821 	addu	v1,v1,a1
  401924:	afa30000 	sw	v1,0(sp)
  401928:	8fa20000 	lw	v0,0(sp)
  40192c:	8fa30004 	lw	v1,4(sp)
  401930:	8fa40008 	lw	a0,8(sp)
  401934:	00431021 	addu	v0,v0,v1
  401938:	00441023 	subu	v0,v0,a0
  40193c:	00451021 	addu	v0,v0,a1
  401940:	afa20008 	sw	v0,8(sp)
  401944:	8fa30000 	lw	v1,0(sp)
  401948:	8fa20004 	lw	v0,4(sp)
  40194c:	8fa40008 	lw	a0,8(sp)
  401950:	00621821 	addu	v1,v1,v0
  401954:	00641823 	subu	v1,v1,a0
  401958:	00651821 	addu	v1,v1,a1
  40195c:	afa30004 	sw	v1,4(sp)
  401960:	8fa20000 	lw	v0,0(sp)
  401964:	8fa30004 	lw	v1,4(sp)
  401968:	8fa40008 	lw	a0,8(sp)
  40196c:	00431021 	addu	v0,v0,v1
  401970:	00441023 	subu	v0,v0,a0
  401974:	00451021 	addu	v0,v0,a1
  401978:	afa20000 	sw	v0,0(sp)
  40197c:	8fa30000 	lw	v1,0(sp)
  401980:	8fa20004 	lw	v0,4(sp)
  401984:	8fa40008 	lw	a0,8(sp)
  401988:	00621821 	addu	v1,v1,v0
  40198c:	00641823 	subu	v1,v1,a0
  401990:	00651821 	addu	v1,v1,a1
  401994:	afa30004 	sw	v1,4(sp)
  401998:	8fa20000 	lw	v0,0(sp)
  40199c:	8fa30004 	lw	v1,4(sp)
  4019a0:	8fa40008 	lw	a0,8(sp)
  4019a4:	00431021 	addu	v0,v0,v1
  4019a8:	00441023 	subu	v0,v0,a0
  4019ac:	00451021 	addu	v0,v0,a1
  4019b0:	afa20000 	sw	v0,0(sp)
  4019b4:	8fa30000 	lw	v1,0(sp)
  4019b8:	8fa20004 	lw	v0,4(sp)
  4019bc:	8fa40008 	lw	a0,8(sp)
  4019c0:	00621821 	addu	v1,v1,v0
  4019c4:	00641823 	subu	v1,v1,a0
  4019c8:	00651821 	addu	v1,v1,a1
  4019cc:	afa30008 	sw	v1,8(sp)
  4019d0:	8fa20000 	lw	v0,0(sp)
  4019d4:	8fa30004 	lw	v1,4(sp)
  4019d8:	8fa40008 	lw	a0,8(sp)
  4019dc:	00431021 	addu	v0,v0,v1
  4019e0:	00441023 	subu	v0,v0,a0
  4019e4:	00451021 	addu	v0,v0,a1
  4019e8:	afa20004 	sw	v0,4(sp)
  4019ec:	8fa30000 	lw	v1,0(sp)
  4019f0:	8fa20004 	lw	v0,4(sp)
  4019f4:	8fa40008 	lw	a0,8(sp)
  4019f8:	00621821 	addu	v1,v1,v0
  4019fc:	00641823 	subu	v1,v1,a0
  401a00:	00651821 	addu	v1,v1,a1
  401a04:	afa30000 	sw	v1,0(sp)
  401a08:	8fa20000 	lw	v0,0(sp)
  401a0c:	8fa30004 	lw	v1,4(sp)
  401a10:	8fa40008 	lw	a0,8(sp)
  401a14:	00431021 	addu	v0,v0,v1
  401a18:	00441023 	subu	v0,v0,a0
  401a1c:	00451021 	addu	v0,v0,a1
  401a20:	afa20008 	sw	v0,8(sp)
  401a24:	8fa30000 	lw	v1,0(sp)
  401a28:	8fa20004 	lw	v0,4(sp)
  401a2c:	8fa40008 	lw	a0,8(sp)
  401a30:	00621821 	addu	v1,v1,v0
  401a34:	00641823 	subu	v1,v1,a0
  401a38:	00651821 	addu	v1,v1,a1
  401a3c:	afa30004 	sw	v1,4(sp)
  401a40:	8fa20000 	lw	v0,0(sp)
  401a44:	8fa30004 	lw	v1,4(sp)
  401a48:	8fa40008 	lw	a0,8(sp)
  401a4c:	00431021 	addu	v0,v0,v1
  401a50:	00441023 	subu	v0,v0,a0
  401a54:	00451021 	addu	v0,v0,a1
  401a58:	afa20000 	sw	v0,0(sp)
  401a5c:	8fa30000 	lw	v1,0(sp)
  401a60:	8fa20004 	lw	v0,4(sp)
  401a64:	8fa40008 	lw	a0,8(sp)
  401a68:	00621821 	addu	v1,v1,v0
  401a6c:	00641823 	subu	v1,v1,a0
  401a70:	00651821 	addu	v1,v1,a1
  401a74:	24a50001 	addiu	a1,a1,1
  401a78:	28a20002 	slti	v0,a1,2
  401a7c:	1440ff8e 	bnez	v0,4018b8 <func_3+0x440>
  401a80:	afa30004 	sw	v1,4(sp)
  401a84:	8fa20000 	lw	v0,0(sp)
  401a88:	8fa30004 	lw	v1,4(sp)
  401a8c:	8fa40008 	lw	a0,8(sp)
  401a90:	00431021 	addu	v0,v0,v1
  401a94:	00441021 	addu	v0,v0,a0
  401a98:	03e00008 	jr	ra
  401a9c:	27bd0010 	addiu	sp,sp,16

00401aa0 <func_4>:
  401aa0:	27bdfff0 	addiu	sp,sp,-16
  401aa4:	2402000a 	li	v0,10
  401aa8:	afa20000 	sw	v0,0(sp)
  401aac:	2403000b 	li	v1,11
  401ab0:	2402000c 	li	v0,12
  401ab4:	afa30004 	sw	v1,4(sp)
  401ab8:	00002821 	move	a1,zero
  401abc:	afa20008 	sw	v0,8(sp)
  401ac0:	8fa20000 	lw	v0,0(sp)
  401ac4:	8fa30004 	lw	v1,4(sp)
  401ac8:	8fa40008 	lw	a0,8(sp)
  401acc:	00431021 	addu	v0,v0,v1
  401ad0:	00441023 	subu	v0,v0,a0
  401ad4:	00451021 	addu	v0,v0,a1
  401ad8:	afa20000 	sw	v0,0(sp)
  401adc:	8fa30000 	lw	v1,0(sp)
  401ae0:	8fa20004 	lw	v0,4(sp)
  401ae4:	8fa40008 	lw	a0,8(sp)
  401ae8:	00621821 	addu	v1,v1,v0
  401aec:	00641823 	subu	v1,v1,a0
  401af0:	00651821 	addu	v1,v1,a1
  401af4:	afa30004 	sw	v1,4(sp)
  401af8:	8fa20000 	lw	v0,0(sp)
  401afc:	8fa30004 	lw	v1,4(sp)
  401b00:	8fa40008 	lw	a0,8(sp)
  401b04:	00431021 	addu	v0,v0,v1
  401b08:	00441023 	subu	v0,v0,a0
  401b0c:	00451021 	addu	v0,v0,a1
  401b10:	afa20008 	sw	v0,8(sp)
  401b14:	8fa30000 	lw	v1,0(sp)
  401b18:	8fa20004 	lw	v0,4(sp)
  401b1c:	8fa40008 	lw	a0,8(sp)
  401b20:	00621821 	addu	v1,v1,v0
  401b24:	00641823 	subu	v1,v1,a0
  401b28:	00651821 	addu	v1,v1,a1
  401b2c:	afa30000 	sw	v1,0(sp)
  401b30:	8fa20000 	lw	v0,0(sp)
  401b34:	8fa30004 	lw	v1,4(sp)
  401b38:	8fa40008 	lw	a0,8(sp)
  401b3c:	00431021 	addu	v0,v0,v1
  401b40:	00441023 	subu	v0,v0,a0
  401b44:	00451021 	addu	v0,v0,a1
  401b48:	afa20004 	sw	v0,4(sp)
  401b4c:	8fa30000 	lw	v1,0(sp)
  401b50:	8fa20004 	lw	v0,4(sp)
  401b54:	8fa40008 	lw	a0,8(sp)
  401b58:	00621821 	addu	v1,v1,v0
  401b5c:	00641823 	subu	v1,v1,a0
  401b60:	00651821 	addu	v1,v1,a1
  401b64:	afa30008 	sw	v1,8(sp)
  401b68:	8fa20000 	lw	v0,0(sp)
  401b6c:	8fa30004 	lw	v1,4(sp)
  401b70:	8fa40008 	lw	a0,8(sp)
  401b74:	00431021 	addu	v0,v0,v1
  401b78:	00441023 	subu	v0,v0,a0
  401b7c:	00451021 	addu	v0,v0,a1
  401b80:	afa20000 	sw	v0,0(sp)
  401b84:	8fa30000 	lw	v1,0(sp)
  401b88:	8fa20004 	lw	v0,4(sp)
  401b8c:	8fa40008 	lw	a0,8(sp)
  401b90:	00621821 	addu	v1,v1,v0
  401b94:	00641823 	subu	v1,v1,a0
  401b98:	00651821 	addu	v1,v1,a1
  401b9c:	afa30004 	sw	v1,4(sp)
  401ba0:	8fa20000 	lw	v0,0(sp)
  401ba4:	8fa30004 	lw	v1,4(sp)
  401ba8:	8fa40008 	lw	a0,8(sp)
  401bac:	00431021 	addu	v0,v0,v1
  401bb0:	00441023 	subu	v0,v0,a0
  401bb4:	00451021 	addu	v0,v0,a1
  401bb8:	afa20008 	sw	v0,8(sp)
  401bbc:	8fa30000 	lw	v1,0(sp)
  401bc0:	8fa20004 	lw	v0,4(sp)
  401bc4:	8fa40008 	lw	a0,8(sp)
  401bc8:	00621821 	addu	v1,v1,v0
  401bcc:	00641823 	subu	v1,v1,a0
  401bd0:	00651821 	addu	v1,v1,a1
  401bd4:	afa30000 	sw	v1,0(sp)
  401bd8:	8fa20000 	lw	v0,0(sp)
  401bdc:	8fa30004 	lw	v1,4(sp)
  401be0:	8fa40008 	lw	a0,8(sp)
  401be4:	00431021 	addu	v0,v0,v1
  401be8:	00441023 	subu	v0,v0,a0
  401bec:	00451021 	addu	v0,v0,a1
  401bf0:	afa20004 	sw	v0,4(sp)
  401bf4:	8fa30000 	lw	v1,0(sp)
  401bf8:	8fa20004 	lw	v0,4(sp)
  401bfc:	8fa40008 	lw	a0,8(sp)
  401c00:	00621821 	addu	v1,v1,v0
  401c04:	00641823 	subu	v1,v1,a0
  401c08:	00651821 	addu	v1,v1,a1
  401c0c:	afa30008 	sw	v1,8(sp)
  401c10:	8fa20000 	lw	v0,0(sp)
  401c14:	8fa30004 	lw	v1,4(sp)
  401c18:	8fa40008 	lw	a0,8(sp)
  401c1c:	00431021 	addu	v0,v0,v1
  401c20:	00441023 	subu	v0,v0,a0
  401c24:	00451021 	addu	v0,v0,a1
  401c28:	afa20000 	sw	v0,0(sp)
  401c2c:	8fa30000 	lw	v1,0(sp)
  401c30:	8fa20004 	lw	v0,4(sp)
  401c34:	8fa40008 	lw	a0,8(sp)
  401c38:	00621821 	addu	v1,v1,v0
  401c3c:	00641823 	subu	v1,v1,a0
  401c40:	00651821 	addu	v1,v1,a1
  401c44:	afa30004 	sw	v1,4(sp)
  401c48:	8fa20000 	lw	v0,0(sp)
  401c4c:	8fa30004 	lw	v1,4(sp)
  401c50:	8fa40008 	lw	a0,8(sp)
  401c54:	00431021 	addu	v0,v0,v1
  401c58:	00441023 	subu	v0,v0,a0
  401c5c:	00451021 	addu	v0,v0,a1
  401c60:	afa20008 	sw	v0,8(sp)
  401c64:	8fa30000 	lw	v1,0(sp)
  401c68:	8fa20004 	lw	v0,4(sp)
  401c6c:	8fa40008 	lw	a0,8(sp)
  401c70:	00621821 	addu	v1,v1,v0
  401c74:	00641823 	subu	v1,v1,a0
  401c78:	00651821 	addu	v1,v1,a1
  401c7c:	24a50001 	addiu	a1,a1,1
  401c80:	28a20002 	slti	v0,a1,2
  401c84:	1440ff8e 	bnez	v0,401ac0 <func_4+0x20>
  401c88:	afa30000 	sw	v1,0(sp)
  401c8c:	00002821 	move	a1,zero
  401c90:	8fa20000 	lw	v0,0(sp)
  401c94:	8fa30004 	lw	v1,4(sp)
  401c98:	8fa40008 	lw	a0,8(sp)
  401c9c:	00431021 	addu	v0,v0,v1
  401ca0:	00441023 	subu	v0,v0,a0
  401ca4:	00451021 	addu	v0,v0,a1
  401ca8:	afa20004 	sw	v0,4(sp)
  401cac:	8fa30000 	lw	v1,0(sp)
  401cb0:	8fa20004 	lw	v0,4(sp)
  401cb4:	8fa40008 	lw	a0,8(sp)
  401cb8:	00621821 	addu	v1,v1,v0
  401cbc:	00641823 	subu	v1,v1,a0
  401cc0:	00651821 	addu	v1,v1,a1
  401cc4:	afa30000 	sw	v1,0(sp)
  401cc8:	8fa20000 	lw	v0,0(sp)
  401ccc:	8fa30004 	lw	v1,4(sp)
  401cd0:	8fa40008 	lw	a0,8(sp)
  401cd4:	00431021 	addu	v0,v0,v1
  401cd8:	00441023 	subu	v0,v0,a0
  401cdc:	00451021 	addu	v0,v0,a1
  401ce0:	afa20008 	sw	v0,8(sp)
  401ce4:	8fa30000 	lw	v1,0(sp)
  401ce8:	8fa20004 	lw	v0,4(sp)
  401cec:	8fa40008 	lw	a0,8(sp)
  401cf0:	00621821 	addu	v1,v1,v0
  401cf4:	00641823 	subu	v1,v1,a0
  401cf8:	00651821 	addu	v1,v1,a1
  401cfc:	afa30004 	sw	v1,4(sp)
  401d00:	8fa20000 	lw	v0,0(sp)
  401d04:	8fa30004 	lw	v1,4(sp)
  401d08:	8fa40008 	lw	a0,8(sp)
  401d0c:	00431021 	addu	v0,v0,v1
  401d10:	00441023 	subu	v0,v0,a0
  401d14:	00451021 	addu	v0,v0,a1
  401d18:	afa20004 	sw	v0,4(sp)
  401d1c:	8fa30000 	lw	v1,0(sp)
  401d20:	8fa20004 	lw	v0,4(sp)
  401d24:	8fa40008 	lw	a0,8(sp)
  401d28:	00621821 	addu	v1,v1,v0
  401d2c:	00641823 	subu	v1,v1,a0
  401d30:	00651821 	addu	v1,v1,a1
  401d34:	afa30000 	sw	v1,0(sp)
  401d38:	8fa20000 	lw	v0,0(sp)
  401d3c:	8fa30004 	lw	v1,4(sp)
  401d40:	8fa40008 	lw	a0,8(sp)
  401d44:	00431021 	addu	v0,v0,v1
  401d48:	00441023 	subu	v0,v0,a0
  401d4c:	00451021 	addu	v0,v0,a1
  401d50:	afa20008 	sw	v0,8(sp)
  401d54:	8fa30000 	lw	v1,0(sp)
  401d58:	8fa20004 	lw	v0,4(sp)
  401d5c:	8fa40008 	lw	a0,8(sp)
  401d60:	00621821 	addu	v1,v1,v0
  401d64:	00641823 	subu	v1,v1,a0
  401d68:	00651821 	addu	v1,v1,a1
  401d6c:	afa30004 	sw	v1,4(sp)
  401d70:	8fa20000 	lw	v0,0(sp)
  401d74:	8fa30004 	lw	v1,4(sp)
  401d78:	8fa40008 	lw	a0,8(sp)
  401d7c:	00431021 	addu	v0,v0,v1
  401d80:	00441023 	subu	v0,v0,a0
  401d84:	00451021 	addu	v0,v0,a1
  401d88:	afa20000 	sw	v0,0(sp)
  401d8c:	8fa30000 	lw	v1,0(sp)
  401d90:	8fa20004 	lw	v0,4(sp)
  401d94:	8fa40008 	lw	a0,8(sp)
  401d98:	00621821 	addu	v1,v1,v0
  401d9c:	00641823 	subu	v1,v1,a0
  401da0:	00651821 	addu	v1,v1,a1
  401da4:	afa30008 	sw	v1,8(sp)
  401da8:	8fa20000 	lw	v0,0(sp)
  401dac:	8fa30004 	lw	v1,4(sp)
  401db0:	8fa40008 	lw	a0,8(sp)
  401db4:	00431021 	addu	v0,v0,v1
  401db8:	00441023 	subu	v0,v0,a0
  401dbc:	00451021 	addu	v0,v0,a1
  401dc0:	afa20004 	sw	v0,4(sp)
  401dc4:	8fa30000 	lw	v1,0(sp)
  401dc8:	8fa20004 	lw	v0,4(sp)
  401dcc:	8fa40008 	lw	a0,8(sp)
  401dd0:	00621821 	addu	v1,v1,v0
  401dd4:	00641823 	subu	v1,v1,a0
  401dd8:	00651821 	addu	v1,v1,a1
  401ddc:	afa30000 	sw	v1,0(sp)
  401de0:	8fa20000 	lw	v0,0(sp)
  401de4:	8fa30004 	lw	v1,4(sp)
  401de8:	8fa40008 	lw	a0,8(sp)
  401dec:	00431021 	addu	v0,v0,v1
  401df0:	00441023 	subu	v0,v0,a0
  401df4:	00451021 	addu	v0,v0,a1
  401df8:	24a50001 	addiu	a1,a1,1
  401dfc:	28a30002 	slti	v1,a1,2
  401e00:	1460ffa3 	bnez	v1,401c90 <func_4+0x1f0>
  401e04:	afa20008 	sw	v0,8(sp)
  401e08:	00002821 	move	a1,zero
  401e0c:	8fa20000 	lw	v0,0(sp)
  401e10:	8fa30004 	lw	v1,4(sp)
  401e14:	8fa40008 	lw	a0,8(sp)
  401e18:	00431021 	addu	v0,v0,v1
  401e1c:	00441023 	subu	v0,v0,a0
  401e20:	00451021 	addu	v0,v0,a1
  401e24:	afa20008 	sw	v0,8(sp)
  401e28:	8fa30000 	lw	v1,0(sp)
  401e2c:	8fa20004 	lw	v0,4(sp)
  401e30:	8fa40008 	lw	a0,8(sp)
  401e34:	00621821 	addu	v1,v1,v0
  401e38:	00641823 	subu	v1,v1,a0
  401e3c:	00651821 	addu	v1,v1,a1
  401e40:	afa30004 	sw	v1,4(sp)
  401e44:	8fa20000 	lw	v0,0(sp)
  401e48:	8fa30004 	lw	v1,4(sp)
  401e4c:	8fa40008 	lw	a0,8(sp)
  401e50:	00431021 	addu	v0,v0,v1
  401e54:	00441023 	subu	v0,v0,a0
  401e58:	00451021 	addu	v0,v0,a1
  401e5c:	afa20000 	sw	v0,0(sp)
  401e60:	8fa30000 	lw	v1,0(sp)
  401e64:	8fa20004 	lw	v0,4(sp)
  401e68:	8fa40008 	lw	a0,8(sp)
  401e6c:	00621821 	addu	v1,v1,v0
  401e70:	00641823 	subu	v1,v1,a0
  401e74:	00651821 	addu	v1,v1,a1
  401e78:	afa30008 	sw	v1,8(sp)
  401e7c:	8fa20000 	lw	v0,0(sp)
  401e80:	8fa30004 	lw	v1,4(sp)
  401e84:	8fa40008 	lw	a0,8(sp)
  401e88:	00431021 	addu	v0,v0,v1
  401e8c:	00441023 	subu	v0,v0,a0
  401e90:	00451021 	addu	v0,v0,a1
  401e94:	afa20004 	sw	v0,4(sp)
  401e98:	8fa30000 	lw	v1,0(sp)
  401e9c:	8fa20004 	lw	v0,4(sp)
  401ea0:	8fa40008 	lw	a0,8(sp)
  401ea4:	00621821 	addu	v1,v1,v0
  401ea8:	00641823 	subu	v1,v1,a0
  401eac:	00651821 	addu	v1,v1,a1
  401eb0:	afa30000 	sw	v1,0(sp)
  401eb4:	8fa20000 	lw	v0,0(sp)
  401eb8:	8fa30004 	lw	v1,4(sp)
  401ebc:	8fa40008 	lw	a0,8(sp)
  401ec0:	00431021 	addu	v0,v0,v1
  401ec4:	00441023 	subu	v0,v0,a0
  401ec8:	00451021 	addu	v0,v0,a1
  401ecc:	24a50001 	addiu	a1,a1,1
  401ed0:	28a30002 	slti	v1,a1,2
  401ed4:	1460ffcd 	bnez	v1,401e0c <func_4+0x36c>
  401ed8:	afa20008 	sw	v0,8(sp)
  401edc:	00002821 	move	a1,zero
  401ee0:	8fa20000 	lw	v0,0(sp)
  401ee4:	8fa30004 	lw	v1,4(sp)
  401ee8:	8fa40008 	lw	a0,8(sp)
  401eec:	00431021 	addu	v0,v0,v1
  401ef0:	00441023 	subu	v0,v0,a0
  401ef4:	00451021 	addu	v0,v0,a1
  401ef8:	afa20000 	sw	v0,0(sp)
  401efc:	8fa30000 	lw	v1,0(sp)
  401f00:	8fa20004 	lw	v0,4(sp)
  401f04:	8fa40008 	lw	a0,8(sp)
  401f08:	00621821 	addu	v1,v1,v0
  401f0c:	00641823 	subu	v1,v1,a0
  401f10:	00651821 	addu	v1,v1,a1
  401f14:	afa30008 	sw	v1,8(sp)
  401f18:	8fa20000 	lw	v0,0(sp)
  401f1c:	8fa30004 	lw	v1,4(sp)
  401f20:	8fa40008 	lw	a0,8(sp)
  401f24:	00431021 	addu	v0,v0,v1
  401f28:	00441023 	subu	v0,v0,a0
  401f2c:	00451021 	addu	v0,v0,a1
  401f30:	afa20004 	sw	v0,4(sp)
  401f34:	8fa30000 	lw	v1,0(sp)
  401f38:	8fa20004 	lw	v0,4(sp)
  401f3c:	8fa40008 	lw	a0,8(sp)
  401f40:	00621821 	addu	v1,v1,v0
  401f44:	00641823 	subu	v1,v1,a0
  401f48:	00651821 	addu	v1,v1,a1
  401f4c:	afa30000 	sw	v1,0(sp)
  401f50:	8fa20000 	lw	v0,0(sp)
  401f54:	8fa30004 	lw	v1,4(sp)
  401f58:	8fa40008 	lw	a0,8(sp)
  401f5c:	00431021 	addu	v0,v0,v1
  401f60:	00441023 	subu	v0,v0,a0
  401f64:	00451021 	addu	v0,v0,a1
  401f68:	afa20008 	sw	v0,8(sp)
  401f6c:	8fa30000 	lw	v1,0(sp)
  401f70:	8fa20004 	lw	v0,4(sp)
  401f74:	8fa40008 	lw	a0,8(sp)
  401f78:	00621821 	addu	v1,v1,v0
  401f7c:	00641823 	subu	v1,v1,a0
  401f80:	00651821 	addu	v1,v1,a1
  401f84:	afa30004 	sw	v1,4(sp)
  401f88:	8fa20000 	lw	v0,0(sp)
  401f8c:	8fa30004 	lw	v1,4(sp)
  401f90:	8fa40008 	lw	a0,8(sp)
  401f94:	00431021 	addu	v0,v0,v1
  401f98:	00441023 	subu	v0,v0,a0
  401f9c:	00451021 	addu	v0,v0,a1
  401fa0:	afa20000 	sw	v0,0(sp)
  401fa4:	8fa30000 	lw	v1,0(sp)
  401fa8:	8fa20004 	lw	v0,4(sp)
  401fac:	8fa40008 	lw	a0,8(sp)
  401fb0:	00621821 	addu	v1,v1,v0
  401fb4:	00641823 	subu	v1,v1,a0
  401fb8:	00651821 	addu	v1,v1,a1
  401fbc:	afa30004 	sw	v1,4(sp)
  401fc0:	8fa20000 	lw	v0,0(sp)
  401fc4:	8fa30004 	lw	v1,4(sp)
  401fc8:	8fa40008 	lw	a0,8(sp)
  401fcc:	00431021 	addu	v0,v0,v1
  401fd0:	00441023 	subu	v0,v0,a0
  401fd4:	00451021 	addu	v0,v0,a1
  401fd8:	afa20000 	sw	v0,0(sp)
  401fdc:	8fa30000 	lw	v1,0(sp)
  401fe0:	8fa20004 	lw	v0,4(sp)
  401fe4:	8fa40008 	lw	a0,8(sp)
  401fe8:	00621821 	addu	v1,v1,v0
  401fec:	00641823 	subu	v1,v1,a0
  401ff0:	00651821 	addu	v1,v1,a1
  401ff4:	afa30008 	sw	v1,8(sp)
  401ff8:	8fa20000 	lw	v0,0(sp)
  401ffc:	8fa30004 	lw	v1,4(sp)
  402000:	8fa40008 	lw	a0,8(sp)
  402004:	00431021 	addu	v0,v0,v1
  402008:	00441023 	subu	v0,v0,a0
  40200c:	00451021 	addu	v0,v0,a1
  402010:	afa20004 	sw	v0,4(sp)
  402014:	8fa30000 	lw	v1,0(sp)
  402018:	8fa20004 	lw	v0,4(sp)
  40201c:	8fa40008 	lw	a0,8(sp)
  402020:	00621821 	addu	v1,v1,v0
  402024:	00641823 	subu	v1,v1,a0
  402028:	00651821 	addu	v1,v1,a1
  40202c:	afa30000 	sw	v1,0(sp)
  402030:	8fa20000 	lw	v0,0(sp)
  402034:	8fa30004 	lw	v1,4(sp)
  402038:	8fa40008 	lw	a0,8(sp)
  40203c:	00431021 	addu	v0,v0,v1
  402040:	00441023 	subu	v0,v0,a0
  402044:	00451021 	addu	v0,v0,a1
  402048:	afa20008 	sw	v0,8(sp)
  40204c:	8fa30000 	lw	v1,0(sp)
  402050:	8fa20004 	lw	v0,4(sp)
  402054:	8fa40008 	lw	a0,8(sp)
  402058:	00621821 	addu	v1,v1,v0
  40205c:	00641823 	subu	v1,v1,a0
  402060:	00651821 	addu	v1,v1,a1
  402064:	afa30004 	sw	v1,4(sp)
  402068:	8fa20000 	lw	v0,0(sp)
  40206c:	8fa30004 	lw	v1,4(sp)
  402070:	8fa40008 	lw	a0,8(sp)
  402074:	00431021 	addu	v0,v0,v1
  402078:	00441023 	subu	v0,v0,a0
  40207c:	00451021 	addu	v0,v0,a1
  402080:	afa20000 	sw	v0,0(sp)
  402084:	8fa30000 	lw	v1,0(sp)
  402088:	8fa20004 	lw	v0,4(sp)
  40208c:	8fa40008 	lw	a0,8(sp)
  402090:	00621821 	addu	v1,v1,v0
  402094:	00641823 	subu	v1,v1,a0
  402098:	00651821 	addu	v1,v1,a1
  40209c:	24a50001 	addiu	a1,a1,1
  4020a0:	28a20002 	slti	v0,a1,2
  4020a4:	1440ff8e 	bnez	v0,401ee0 <func_4+0x440>
  4020a8:	afa30004 	sw	v1,4(sp)
  4020ac:	8fa20000 	lw	v0,0(sp)
  4020b0:	8fa30004 	lw	v1,4(sp)
  4020b4:	8fa40008 	lw	a0,8(sp)
  4020b8:	00431021 	addu	v0,v0,v1
  4020bc:	00441021 	addu	v0,v0,a0
  4020c0:	03e00008 	jr	ra
  4020c4:	27bd0010 	addiu	sp,sp,16

004020c8 <func_5>:
  4020c8:	27bdfff0 	addiu	sp,sp,-16
  4020cc:	2402000a 	li	v0,10
  4020d0:	afa20000 	sw	v0,0(sp)
  4020d4:	2403000b 	li	v1,11
  4020d8:	2402000c 	li	v0,12
  4020dc:	afa30004 	sw	v1,4(sp)
  4020e0:	00002821 	move	a1,zero
  4020e4:	afa20008 	sw	v0,8(sp)
  4020e8:	8fa20000 	lw	v0,0(sp)
  4020ec:	8fa30004 	lw	v1,4(sp)
  4020f0:	8fa40008 	lw	a0,8(sp)
  4020f4:	00431021 	addu	v0,v0,v1
  4020f8:	00441023 	subu	v0,v0,a0
  4020fc:	00451021 	addu	v0,v0,a1
  402100:	afa20000 	sw	v0,0(sp)
  402104:	8fa30000 	lw	v1,0(sp)
  402108:	8fa20004 	lw	v0,4(sp)
  40210c:	8fa40008 	lw	a0,8(sp)
  402110:	00621821 	addu	v1,v1,v0
  402114:	00641823 	subu	v1,v1,a0
  402118:	00651821 	addu	v1,v1,a1
  40211c:	afa30004 	sw	v1,4(sp)
  402120:	8fa20000 	lw	v0,0(sp)
  402124:	8fa30004 	lw	v1,4(sp)
  402128:	8fa40008 	lw	a0,8(sp)
  40212c:	00431021 	addu	v0,v0,v1
  402130:	00441023 	subu	v0,v0,a0
  402134:	00451021 	addu	v0,v0,a1
  402138:	afa20008 	sw	v0,8(sp)
  40213c:	8fa30000 	lw	v1,0(sp)
  402140:	8fa20004 	lw	v0,4(sp)
  402144:	8fa40008 	lw	a0,8(sp)
  402148:	00621821 	addu	v1,v1,v0
  40214c:	00641823 	subu	v1,v1,a0
  402150:	00651821 	addu	v1,v1,a1
  402154:	afa30000 	sw	v1,0(sp)
  402158:	8fa20000 	lw	v0,0(sp)
  40215c:	8fa30004 	lw	v1,4(sp)
  402160:	8fa40008 	lw	a0,8(sp)
  402164:	00431021 	addu	v0,v0,v1
  402168:	00441023 	subu	v0,v0,a0
  40216c:	00451021 	addu	v0,v0,a1
  402170:	afa20004 	sw	v0,4(sp)
  402174:	8fa30000 	lw	v1,0(sp)
  402178:	8fa20004 	lw	v0,4(sp)
  40217c:	8fa40008 	lw	a0,8(sp)
  402180:	00621821 	addu	v1,v1,v0
  402184:	00641823 	subu	v1,v1,a0
  402188:	00651821 	addu	v1,v1,a1
  40218c:	afa30008 	sw	v1,8(sp)
  402190:	8fa20000 	lw	v0,0(sp)
  402194:	8fa30004 	lw	v1,4(sp)
  402198:	8fa40008 	lw	a0,8(sp)
  40219c:	00431021 	addu	v0,v0,v1
  4021a0:	00441023 	subu	v0,v0,a0
  4021a4:	00451021 	addu	v0,v0,a1
  4021a8:	afa20000 	sw	v0,0(sp)
  4021ac:	8fa30000 	lw	v1,0(sp)
  4021b0:	8fa20004 	lw	v0,4(sp)
  4021b4:	8fa40008 	lw	a0,8(sp)
  4021b8:	00621821 	addu	v1,v1,v0
  4021bc:	00641823 	subu	v1,v1,a0
  4021c0:	00651821 	addu	v1,v1,a1
  4021c4:	afa30004 	sw	v1,4(sp)
  4021c8:	8fa20000 	lw	v0,0(sp)
  4021cc:	8fa30004 	lw	v1,4(sp)
  4021d0:	8fa40008 	lw	a0,8(sp)
  4021d4:	00431021 	addu	v0,v0,v1
  4021d8:	00441023 	subu	v0,v0,a0
  4021dc:	00451021 	addu	v0,v0,a1
  4021e0:	afa20008 	sw	v0,8(sp)
  4021e4:	8fa30000 	lw	v1,0(sp)
  4021e8:	8fa20004 	lw	v0,4(sp)
  4021ec:	8fa40008 	lw	a0,8(sp)
  4021f0:	00621821 	addu	v1,v1,v0
  4021f4:	00641823 	subu	v1,v1,a0
  4021f8:	00651821 	addu	v1,v1,a1
  4021fc:	afa30000 	sw	v1,0(sp)
  402200:	8fa20000 	lw	v0,0(sp)
  402204:	8fa30004 	lw	v1,4(sp)
  402208:	8fa40008 	lw	a0,8(sp)
  40220c:	00431021 	addu	v0,v0,v1
  402210:	00441023 	subu	v0,v0,a0
  402214:	00451021 	addu	v0,v0,a1
  402218:	afa20004 	sw	v0,4(sp)
  40221c:	8fa30000 	lw	v1,0(sp)
  402220:	8fa20004 	lw	v0,4(sp)
  402224:	8fa40008 	lw	a0,8(sp)
  402228:	00621821 	addu	v1,v1,v0
  40222c:	00641823 	subu	v1,v1,a0
  402230:	00651821 	addu	v1,v1,a1
  402234:	afa30008 	sw	v1,8(sp)
  402238:	8fa20000 	lw	v0,0(sp)
  40223c:	8fa30004 	lw	v1,4(sp)
  402240:	8fa40008 	lw	a0,8(sp)
  402244:	00431021 	addu	v0,v0,v1
  402248:	00441023 	subu	v0,v0,a0
  40224c:	00451021 	addu	v0,v0,a1
  402250:	afa20000 	sw	v0,0(sp)
  402254:	8fa30000 	lw	v1,0(sp)
  402258:	8fa20004 	lw	v0,4(sp)
  40225c:	8fa40008 	lw	a0,8(sp)
  402260:	00621821 	addu	v1,v1,v0
  402264:	00641823 	subu	v1,v1,a0
  402268:	00651821 	addu	v1,v1,a1
  40226c:	afa30004 	sw	v1,4(sp)
  402270:	8fa20000 	lw	v0,0(sp)
  402274:	8fa30004 	lw	v1,4(sp)
  402278:	8fa40008 	lw	a0,8(sp)
  40227c:	00431021 	addu	v0,v0,v1
  402280:	00441023 	subu	v0,v0,a0
  402284:	00451021 	addu	v0,v0,a1
  402288:	afa20008 	sw	v0,8(sp)
  40228c:	8fa30000 	lw	v1,0(sp)
  402290:	8fa20004 	lw	v0,4(sp)
  402294:	8fa40008 	lw	a0,8(sp)
  402298:	00621821 	addu	v1,v1,v0
  40229c:	00641823 	subu	v1,v1,a0
  4022a0:	00651821 	addu	v1,v1,a1
  4022a4:	24a50001 	addiu	a1,a1,1
  4022a8:	28a20002 	slti	v0,a1,2
  4022ac:	1440ff8e 	bnez	v0,4020e8 <func_5+0x20>
  4022b0:	afa30000 	sw	v1,0(sp)
  4022b4:	00002821 	move	a1,zero
  4022b8:	8fa20000 	lw	v0,0(sp)
  4022bc:	8fa30004 	lw	v1,4(sp)
  4022c0:	8fa40008 	lw	a0,8(sp)
  4022c4:	00431021 	addu	v0,v0,v1
  4022c8:	00441023 	subu	v0,v0,a0
  4022cc:	00451021 	addu	v0,v0,a1
  4022d0:	afa20004 	sw	v0,4(sp)
  4022d4:	8fa30000 	lw	v1,0(sp)
  4022d8:	8fa20004 	lw	v0,4(sp)
  4022dc:	8fa40008 	lw	a0,8(sp)
  4022e0:	00621821 	addu	v1,v1,v0
  4022e4:	00641823 	subu	v1,v1,a0
  4022e8:	00651821 	addu	v1,v1,a1
  4022ec:	afa30000 	sw	v1,0(sp)
  4022f0:	8fa20000 	lw	v0,0(sp)
  4022f4:	8fa30004 	lw	v1,4(sp)
  4022f8:	8fa40008 	lw	a0,8(sp)
  4022fc:	00431021 	addu	v0,v0,v1
  402300:	00441023 	subu	v0,v0,a0
  402304:	00451021 	addu	v0,v0,a1
  402308:	afa20008 	sw	v0,8(sp)
  40230c:	8fa30000 	lw	v1,0(sp)
  402310:	8fa20004 	lw	v0,4(sp)
  402314:	8fa40008 	lw	a0,8(sp)
  402318:	00621821 	addu	v1,v1,v0
  40231c:	00641823 	subu	v1,v1,a0
  402320:	00651821 	addu	v1,v1,a1
  402324:	afa30004 	sw	v1,4(sp)
  402328:	8fa20000 	lw	v0,0(sp)
  40232c:	8fa30004 	lw	v1,4(sp)
  402330:	8fa40008 	lw	a0,8(sp)
  402334:	00431021 	addu	v0,v0,v1
  402338:	00441023 	subu	v0,v0,a0
  40233c:	00451021 	addu	v0,v0,a1
  402340:	afa20004 	sw	v0,4(sp)
  402344:	8fa30000 	lw	v1,0(sp)
  402348:	8fa20004 	lw	v0,4(sp)
  40234c:	8fa40008 	lw	a0,8(sp)
  402350:	00621821 	addu	v1,v1,v0
  402354:	00641823 	subu	v1,v1,a0
  402358:	00651821 	addu	v1,v1,a1
  40235c:	afa30000 	sw	v1,0(sp)
  402360:	8fa20000 	lw	v0,0(sp)
  402364:	8fa30004 	lw	v1,4(sp)
  402368:	8fa40008 	lw	a0,8(sp)
  40236c:	00431021 	addu	v0,v0,v1
  402370:	00441023 	subu	v0,v0,a0
  402374:	00451021 	addu	v0,v0,a1
  402378:	afa20008 	sw	v0,8(sp)
  40237c:	8fa30000 	lw	v1,0(sp)
  402380:	8fa20004 	lw	v0,4(sp)
  402384:	8fa40008 	lw	a0,8(sp)
  402388:	00621821 	addu	v1,v1,v0
  40238c:	00641823 	subu	v1,v1,a0
  402390:	00651821 	addu	v1,v1,a1
  402394:	afa30004 	sw	v1,4(sp)
  402398:	8fa20000 	lw	v0,0(sp)
  40239c:	8fa30004 	lw	v1,4(sp)
  4023a0:	8fa40008 	lw	a0,8(sp)
  4023a4:	00431021 	addu	v0,v0,v1
  4023a8:	00441023 	subu	v0,v0,a0
  4023ac:	00451021 	addu	v0,v0,a1
  4023b0:	afa20000 	sw	v0,0(sp)
  4023b4:	8fa30000 	lw	v1,0(sp)
  4023b8:	8fa20004 	lw	v0,4(sp)
  4023bc:	8fa40008 	lw	a0,8(sp)
  4023c0:	00621821 	addu	v1,v1,v0
  4023c4:	00641823 	subu	v1,v1,a0
  4023c8:	00651821 	addu	v1,v1,a1
  4023cc:	afa30008 	sw	v1,8(sp)
  4023d0:	8fa20000 	lw	v0,0(sp)
  4023d4:	8fa30004 	lw	v1,4(sp)
  4023d8:	8fa40008 	lw	a0,8(sp)
  4023dc:	00431021 	addu	v0,v0,v1
  4023e0:	00441023 	subu	v0,v0,a0
  4023e4:	00451021 	addu	v0,v0,a1
  4023e8:	afa20004 	sw	v0,4(sp)
  4023ec:	8fa30000 	lw	v1,0(sp)
  4023f0:	8fa20004 	lw	v0,4(sp)
  4023f4:	8fa40008 	lw	a0,8(sp)
  4023f8:	00621821 	addu	v1,v1,v0
  4023fc:	00641823 	subu	v1,v1,a0
  402400:	00651821 	addu	v1,v1,a1
  402404:	afa30000 	sw	v1,0(sp)
  402408:	8fa20000 	lw	v0,0(sp)
  40240c:	8fa30004 	lw	v1,4(sp)
  402410:	8fa40008 	lw	a0,8(sp)
  402414:	00431021 	addu	v0,v0,v1
  402418:	00441023 	subu	v0,v0,a0
  40241c:	00451021 	addu	v0,v0,a1
  402420:	24a50001 	addiu	a1,a1,1
  402424:	28a30002 	slti	v1,a1,2
  402428:	1460ffa3 	bnez	v1,4022b8 <func_5+0x1f0>
  40242c:	afa20008 	sw	v0,8(sp)
  402430:	00002821 	move	a1,zero
  402434:	8fa20000 	lw	v0,0(sp)
  402438:	8fa30004 	lw	v1,4(sp)
  40243c:	8fa40008 	lw	a0,8(sp)
  402440:	00431021 	addu	v0,v0,v1
  402444:	00441023 	subu	v0,v0,a0
  402448:	00451021 	addu	v0,v0,a1
  40244c:	afa20008 	sw	v0,8(sp)
  402450:	8fa30000 	lw	v1,0(sp)
  402454:	8fa20004 	lw	v0,4(sp)
  402458:	8fa40008 	lw	a0,8(sp)
  40245c:	00621821 	addu	v1,v1,v0
  402460:	00641823 	subu	v1,v1,a0
  402464:	00651821 	addu	v1,v1,a1
  402468:	afa30004 	sw	v1,4(sp)
  40246c:	8fa20000 	lw	v0,0(sp)
  402470:	8fa30004 	lw	v1,4(sp)
  402474:	8fa40008 	lw	a0,8(sp)
  402478:	00431021 	addu	v0,v0,v1
  40247c:	00441023 	subu	v0,v0,a0
  402480:	00451021 	addu	v0,v0,a1
  402484:	afa20000 	sw	v0,0(sp)
  402488:	8fa30000 	lw	v1,0(sp)
  40248c:	8fa20004 	lw	v0,4(sp)
  402490:	8fa40008 	lw	a0,8(sp)
  402494:	00621821 	addu	v1,v1,v0
  402498:	00641823 	subu	v1,v1,a0
  40249c:	00651821 	addu	v1,v1,a1
  4024a0:	afa30008 	sw	v1,8(sp)
  4024a4:	8fa20000 	lw	v0,0(sp)
  4024a8:	8fa30004 	lw	v1,4(sp)
  4024ac:	8fa40008 	lw	a0,8(sp)
  4024b0:	00431021 	addu	v0,v0,v1
  4024b4:	00441023 	subu	v0,v0,a0
  4024b8:	00451021 	addu	v0,v0,a1
  4024bc:	afa20004 	sw	v0,4(sp)
  4024c0:	8fa30000 	lw	v1,0(sp)
  4024c4:	8fa20004 	lw	v0,4(sp)
  4024c8:	8fa40008 	lw	a0,8(sp)
  4024cc:	00621821 	addu	v1,v1,v0
  4024d0:	00641823 	subu	v1,v1,a0
  4024d4:	00651821 	addu	v1,v1,a1
  4024d8:	afa30000 	sw	v1,0(sp)
  4024dc:	8fa20000 	lw	v0,0(sp)
  4024e0:	8fa30004 	lw	v1,4(sp)
  4024e4:	8fa40008 	lw	a0,8(sp)
  4024e8:	00431021 	addu	v0,v0,v1
  4024ec:	00441023 	subu	v0,v0,a0
  4024f0:	00451021 	addu	v0,v0,a1
  4024f4:	24a50001 	addiu	a1,a1,1
  4024f8:	28a30002 	slti	v1,a1,2
  4024fc:	1460ffcd 	bnez	v1,402434 <func_5+0x36c>
  402500:	afa20008 	sw	v0,8(sp)
  402504:	00002821 	move	a1,zero
  402508:	8fa20000 	lw	v0,0(sp)
  40250c:	8fa30004 	lw	v1,4(sp)
  402510:	8fa40008 	lw	a0,8(sp)
  402514:	00431021 	addu	v0,v0,v1
  402518:	00441023 	subu	v0,v0,a0
  40251c:	00451021 	addu	v0,v0,a1
  402520:	afa20000 	sw	v0,0(sp)
  402524:	8fa30000 	lw	v1,0(sp)
  402528:	8fa20004 	lw	v0,4(sp)
  40252c:	8fa40008 	lw	a0,8(sp)
  402530:	00621821 	addu	v1,v1,v0
  402534:	00641823 	subu	v1,v1,a0
  402538:	00651821 	addu	v1,v1,a1
  40253c:	afa30008 	sw	v1,8(sp)
  402540:	8fa20000 	lw	v0,0(sp)
  402544:	8fa30004 	lw	v1,4(sp)
  402548:	8fa40008 	lw	a0,8(sp)
  40254c:	00431021 	addu	v0,v0,v1
  402550:	00441023 	subu	v0,v0,a0
  402554:	00451021 	addu	v0,v0,a1
  402558:	afa20004 	sw	v0,4(sp)
  40255c:	8fa30000 	lw	v1,0(sp)
  402560:	8fa20004 	lw	v0,4(sp)
  402564:	8fa40008 	lw	a0,8(sp)
  402568:	00621821 	addu	v1,v1,v0
  40256c:	00641823 	subu	v1,v1,a0
  402570:	00651821 	addu	v1,v1,a1
  402574:	afa30000 	sw	v1,0(sp)
  402578:	8fa20000 	lw	v0,0(sp)
  40257c:	8fa30004 	lw	v1,4(sp)
  402580:	8fa40008 	lw	a0,8(sp)
  402584:	00431021 	addu	v0,v0,v1
  402588:	00441023 	subu	v0,v0,a0
  40258c:	00451021 	addu	v0,v0,a1
  402590:	afa20008 	sw	v0,8(sp)
  402594:	8fa30000 	lw	v1,0(sp)
  402598:	8fa20004 	lw	v0,4(sp)
  40259c:	8fa40008 	lw	a0,8(sp)
  4025a0:	00621821 	addu	v1,v1,v0
  4025a4:	00641823 	subu	v1,v1,a0
  4025a8:	00651821 	addu	v1,v1,a1
  4025ac:	afa30004 	sw	v1,4(sp)
  4025b0:	8fa20000 	lw	v0,0(sp)
  4025b4:	8fa30004 	lw	v1,4(sp)
  4025b8:	8fa40008 	lw	a0,8(sp)
  4025bc:	00431021 	addu	v0,v0,v1
  4025c0:	00441023 	subu	v0,v0,a0
  4025c4:	00451021 	addu	v0,v0,a1
  4025c8:	afa20000 	sw	v0,0(sp)
  4025cc:	8fa30000 	lw	v1,0(sp)
  4025d0:	8fa20004 	lw	v0,4(sp)
  4025d4:	8fa40008 	lw	a0,8(sp)
  4025d8:	00621821 	addu	v1,v1,v0
  4025dc:	00641823 	subu	v1,v1,a0
  4025e0:	00651821 	addu	v1,v1,a1
  4025e4:	afa30004 	sw	v1,4(sp)
  4025e8:	8fa20000 	lw	v0,0(sp)
  4025ec:	8fa30004 	lw	v1,4(sp)
  4025f0:	8fa40008 	lw	a0,8(sp)
  4025f4:	00431021 	addu	v0,v0,v1
  4025f8:	00441023 	subu	v0,v0,a0
  4025fc:	00451021 	addu	v0,v0,a1
  402600:	afa20000 	sw	v0,0(sp)
  402604:	8fa30000 	lw	v1,0(sp)
  402608:	8fa20004 	lw	v0,4(sp)
  40260c:	8fa40008 	lw	a0,8(sp)
  402610:	00621821 	addu	v1,v1,v0
  402614:	00641823 	subu	v1,v1,a0
  402618:	00651821 	addu	v1,v1,a1
  40261c:	afa30008 	sw	v1,8(sp)
  402620:	8fa20000 	lw	v0,0(sp)
  402624:	8fa30004 	lw	v1,4(sp)
  402628:	8fa40008 	lw	a0,8(sp)
  40262c:	00431021 	addu	v0,v0,v1
  402630:	00441023 	subu	v0,v0,a0
  402634:	00451021 	addu	v0,v0,a1
  402638:	afa20004 	sw	v0,4(sp)
  40263c:	8fa30000 	lw	v1,0(sp)
  402640:	8fa20004 	lw	v0,4(sp)
  402644:	8fa40008 	lw	a0,8(sp)
  402648:	00621821 	addu	v1,v1,v0
  40264c:	00641823 	subu	v1,v1,a0
  402650:	00651821 	addu	v1,v1,a1
  402654:	afa30000 	sw	v1,0(sp)
  402658:	8fa20000 	lw	v0,0(sp)
  40265c:	8fa30004 	lw	v1,4(sp)
  402660:	8fa40008 	lw	a0,8(sp)
  402664:	00431021 	addu	v0,v0,v1
  402668:	00441023 	subu	v0,v0,a0
  40266c:	00451021 	addu	v0,v0,a1
  402670:	afa20008 	sw	v0,8(sp)
  402674:	8fa30000 	lw	v1,0(sp)
  402678:	8fa20004 	lw	v0,4(sp)
  40267c:	8fa40008 	lw	a0,8(sp)
  402680:	00621821 	addu	v1,v1,v0
  402684:	00641823 	subu	v1,v1,a0
  402688:	00651821 	addu	v1,v1,a1
  40268c:	afa30004 	sw	v1,4(sp)
  402690:	8fa20000 	lw	v0,0(sp)
  402694:	8fa30004 	lw	v1,4(sp)
  402698:	8fa40008 	lw	a0,8(sp)
  40269c:	00431021 	addu	v0,v0,v1
  4026a0:	00441023 	subu	v0,v0,a0
  4026a4:	00451021 	addu	v0,v0,a1
  4026a8:	afa20000 	sw	v0,0(sp)
  4026ac:	8fa30000 	lw	v1,0(sp)
  4026b0:	8fa20004 	lw	v0,4(sp)
  4026b4:	8fa40008 	lw	a0,8(sp)
  4026b8:	00621821 	addu	v1,v1,v0
  4026bc:	00641823 	subu	v1,v1,a0
  4026c0:	00651821 	addu	v1,v1,a1
  4026c4:	24a50001 	addiu	a1,a1,1
  4026c8:	28a20002 	slti	v0,a1,2
  4026cc:	1440ff8e 	bnez	v0,402508 <func_5+0x440>
  4026d0:	afa30004 	sw	v1,4(sp)
  4026d4:	8fa20000 	lw	v0,0(sp)
  4026d8:	8fa30004 	lw	v1,4(sp)
  4026dc:	8fa40008 	lw	a0,8(sp)
  4026e0:	00431021 	addu	v0,v0,v1
  4026e4:	00441021 	addu	v0,v0,a0
  4026e8:	03e00008 	jr	ra
  4026ec:	27bd0010 	addiu	sp,sp,16

004026f0 <func_6>:
  4026f0:	27bdfff0 	addiu	sp,sp,-16
  4026f4:	2402000a 	li	v0,10
  4026f8:	afa20000 	sw	v0,0(sp)
  4026fc:	2403000b 	li	v1,11
  402700:	2402000c 	li	v0,12
  402704:	afa30004 	sw	v1,4(sp)
  402708:	00002821 	move	a1,zero
  40270c:	afa20008 	sw	v0,8(sp)
  402710:	8fa20000 	lw	v0,0(sp)
  402714:	8fa30004 	lw	v1,4(sp)
  402718:	8fa40008 	lw	a0,8(sp)
  40271c:	00431021 	addu	v0,v0,v1
  402720:	00441023 	subu	v0,v0,a0
  402724:	00451021 	addu	v0,v0,a1
  402728:	afa20000 	sw	v0,0(sp)
  40272c:	8fa30000 	lw	v1,0(sp)
  402730:	8fa20004 	lw	v0,4(sp)
  402734:	8fa40008 	lw	a0,8(sp)
  402738:	00621821 	addu	v1,v1,v0
  40273c:	00641823 	subu	v1,v1,a0
  402740:	00651821 	addu	v1,v1,a1
  402744:	afa30004 	sw	v1,4(sp)
  402748:	8fa20000 	lw	v0,0(sp)
  40274c:	8fa30004 	lw	v1,4(sp)
  402750:	8fa40008 	lw	a0,8(sp)
  402754:	00431021 	addu	v0,v0,v1
  402758:	00441023 	subu	v0,v0,a0
  40275c:	00451021 	addu	v0,v0,a1
  402760:	afa20008 	sw	v0,8(sp)
  402764:	8fa30000 	lw	v1,0(sp)
  402768:	8fa20004 	lw	v0,4(sp)
  40276c:	8fa40008 	lw	a0,8(sp)
  402770:	00621821 	addu	v1,v1,v0
  402774:	00641823 	subu	v1,v1,a0
  402778:	00651821 	addu	v1,v1,a1
  40277c:	afa30000 	sw	v1,0(sp)
  402780:	8fa20000 	lw	v0,0(sp)
  402784:	8fa30004 	lw	v1,4(sp)
  402788:	8fa40008 	lw	a0,8(sp)
  40278c:	00431021 	addu	v0,v0,v1
  402790:	00441023 	subu	v0,v0,a0
  402794:	00451021 	addu	v0,v0,a1
  402798:	afa20004 	sw	v0,4(sp)
  40279c:	8fa30000 	lw	v1,0(sp)
  4027a0:	8fa20004 	lw	v0,4(sp)
  4027a4:	8fa40008 	lw	a0,8(sp)
  4027a8:	00621821 	addu	v1,v1,v0
  4027ac:	00641823 	subu	v1,v1,a0
  4027b0:	00651821 	addu	v1,v1,a1
  4027b4:	afa30008 	sw	v1,8(sp)
  4027b8:	8fa20000 	lw	v0,0(sp)
  4027bc:	8fa30004 	lw	v1,4(sp)
  4027c0:	8fa40008 	lw	a0,8(sp)
  4027c4:	00431021 	addu	v0,v0,v1
  4027c8:	00441023 	subu	v0,v0,a0
  4027cc:	00451021 	addu	v0,v0,a1
  4027d0:	afa20000 	sw	v0,0(sp)
  4027d4:	8fa30000 	lw	v1,0(sp)
  4027d8:	8fa20004 	lw	v0,4(sp)
  4027dc:	8fa40008 	lw	a0,8(sp)
  4027e0:	00621821 	addu	v1,v1,v0
  4027e4:	00641823 	subu	v1,v1,a0
  4027e8:	00651821 	addu	v1,v1,a1
  4027ec:	afa30004 	sw	v1,4(sp)
  4027f0:	8fa20000 	lw	v0,0(sp)
  4027f4:	8fa30004 	lw	v1,4(sp)
  4027f8:	8fa40008 	lw	a0,8(sp)
  4027fc:	00431021 	addu	v0,v0,v1
  402800:	00441023 	subu	v0,v0,a0
  402804:	00451021 	addu	v0,v0,a1
  402808:	afa20008 	sw	v0,8(sp)
  40280c:	8fa30000 	lw	v1,0(sp)
  402810:	8fa20004 	lw	v0,4(sp)
  402814:	8fa40008 	lw	a0,8(sp)
  402818:	00621821 	addu	v1,v1,v0
  40281c:	00641823 	subu	v1,v1,a0
  402820:	00651821 	addu	v1,v1,a1
  402824:	afa30000 	sw	v1,0(sp)
  402828:	8fa20000 	lw	v0,0(sp)
  40282c:	8fa30004 	lw	v1,4(sp)
  402830:	8fa40008 	lw	a0,8(sp)
  402834:	00431021 	addu	v0,v0,v1
  402838:	00441023 	subu	v0,v0,a0
  40283c:	00451021 	addu	v0,v0,a1
  402840:	afa20004 	sw	v0,4(sp)
  402844:	8fa30000 	lw	v1,0(sp)
  402848:	8fa20004 	lw	v0,4(sp)
  40284c:	8fa40008 	lw	a0,8(sp)
  402850:	00621821 	addu	v1,v1,v0
  402854:	00641823 	subu	v1,v1,a0
  402858:	00651821 	addu	v1,v1,a1
  40285c:	afa30008 	sw	v1,8(sp)
  402860:	8fa20000 	lw	v0,0(sp)
  402864:	8fa30004 	lw	v1,4(sp)
  402868:	8fa40008 	lw	a0,8(sp)
  40286c:	00431021 	addu	v0,v0,v1
  402870:	00441023 	subu	v0,v0,a0
  402874:	00451021 	addu	v0,v0,a1
  402878:	afa20000 	sw	v0,0(sp)
  40287c:	8fa30000 	lw	v1,0(sp)
  402880:	8fa20004 	lw	v0,4(sp)
  402884:	8fa40008 	lw	a0,8(sp)
  402888:	00621821 	addu	v1,v1,v0
  40288c:	00641823 	subu	v1,v1,a0
  402890:	00651821 	addu	v1,v1,a1
  402894:	afa30004 	sw	v1,4(sp)
  402898:	8fa20000 	lw	v0,0(sp)
  40289c:	8fa30004 	lw	v1,4(sp)
  4028a0:	8fa40008 	lw	a0,8(sp)
  4028a4:	00431021 	addu	v0,v0,v1
  4028a8:	00441023 	subu	v0,v0,a0
  4028ac:	00451021 	addu	v0,v0,a1
  4028b0:	afa20008 	sw	v0,8(sp)
  4028b4:	8fa30000 	lw	v1,0(sp)
  4028b8:	8fa20004 	lw	v0,4(sp)
  4028bc:	8fa40008 	lw	a0,8(sp)
  4028c0:	00621821 	addu	v1,v1,v0
  4028c4:	00641823 	subu	v1,v1,a0
  4028c8:	00651821 	addu	v1,v1,a1
  4028cc:	24a50001 	addiu	a1,a1,1
  4028d0:	28a20002 	slti	v0,a1,2
  4028d4:	1440ff8e 	bnez	v0,402710 <func_6+0x20>
  4028d8:	afa30000 	sw	v1,0(sp)
  4028dc:	00002821 	move	a1,zero
  4028e0:	8fa20000 	lw	v0,0(sp)
  4028e4:	8fa30004 	lw	v1,4(sp)
  4028e8:	8fa40008 	lw	a0,8(sp)
  4028ec:	00431021 	addu	v0,v0,v1
  4028f0:	00441023 	subu	v0,v0,a0
  4028f4:	00451021 	addu	v0,v0,a1
  4028f8:	afa20004 	sw	v0,4(sp)
  4028fc:	8fa30000 	lw	v1,0(sp)
  402900:	8fa20004 	lw	v0,4(sp)
  402904:	8fa40008 	lw	a0,8(sp)
  402908:	00621821 	addu	v1,v1,v0
  40290c:	00641823 	subu	v1,v1,a0
  402910:	00651821 	addu	v1,v1,a1
  402914:	afa30000 	sw	v1,0(sp)
  402918:	8fa20000 	lw	v0,0(sp)
  40291c:	8fa30004 	lw	v1,4(sp)
  402920:	8fa40008 	lw	a0,8(sp)
  402924:	00431021 	addu	v0,v0,v1
  402928:	00441023 	subu	v0,v0,a0
  40292c:	00451021 	addu	v0,v0,a1
  402930:	afa20008 	sw	v0,8(sp)
  402934:	8fa30000 	lw	v1,0(sp)
  402938:	8fa20004 	lw	v0,4(sp)
  40293c:	8fa40008 	lw	a0,8(sp)
  402940:	00621821 	addu	v1,v1,v0
  402944:	00641823 	subu	v1,v1,a0
  402948:	00651821 	addu	v1,v1,a1
  40294c:	afa30004 	sw	v1,4(sp)
  402950:	8fa20000 	lw	v0,0(sp)
  402954:	8fa30004 	lw	v1,4(sp)
  402958:	8fa40008 	lw	a0,8(sp)
  40295c:	00431021 	addu	v0,v0,v1
  402960:	00441023 	subu	v0,v0,a0
  402964:	00451021 	addu	v0,v0,a1
  402968:	afa20004 	sw	v0,4(sp)
  40296c:	8fa30000 	lw	v1,0(sp)
  402970:	8fa20004 	lw	v0,4(sp)
  402974:	8fa40008 	lw	a0,8(sp)
  402978:	00621821 	addu	v1,v1,v0
  40297c:	00641823 	subu	v1,v1,a0
  402980:	00651821 	addu	v1,v1,a1
  402984:	afa30000 	sw	v1,0(sp)
  402988:	8fa20000 	lw	v0,0(sp)
  40298c:	8fa30004 	lw	v1,4(sp)
  402990:	8fa40008 	lw	a0,8(sp)
  402994:	00431021 	addu	v0,v0,v1
  402998:	00441023 	subu	v0,v0,a0
  40299c:	00451021 	addu	v0,v0,a1
  4029a0:	afa20008 	sw	v0,8(sp)
  4029a4:	8fa30000 	lw	v1,0(sp)
  4029a8:	8fa20004 	lw	v0,4(sp)
  4029ac:	8fa40008 	lw	a0,8(sp)
  4029b0:	00621821 	addu	v1,v1,v0
  4029b4:	00641823 	subu	v1,v1,a0
  4029b8:	00651821 	addu	v1,v1,a1
  4029bc:	afa30004 	sw	v1,4(sp)
  4029c0:	8fa20000 	lw	v0,0(sp)
  4029c4:	8fa30004 	lw	v1,4(sp)
  4029c8:	8fa40008 	lw	a0,8(sp)
  4029cc:	00431021 	addu	v0,v0,v1
  4029d0:	00441023 	subu	v0,v0,a0
  4029d4:	00451021 	addu	v0,v0,a1
  4029d8:	afa20000 	sw	v0,0(sp)
  4029dc:	8fa30000 	lw	v1,0(sp)
  4029e0:	8fa20004 	lw	v0,4(sp)
  4029e4:	8fa40008 	lw	a0,8(sp)
  4029e8:	00621821 	addu	v1,v1,v0
  4029ec:	00641823 	subu	v1,v1,a0
  4029f0:	00651821 	addu	v1,v1,a1
  4029f4:	afa30008 	sw	v1,8(sp)
  4029f8:	8fa20000 	lw	v0,0(sp)
  4029fc:	8fa30004 	lw	v1,4(sp)
  402a00:	8fa40008 	lw	a0,8(sp)
  402a04:	00431021 	addu	v0,v0,v1
  402a08:	00441023 	subu	v0,v0,a0
  402a0c:	00451021 	addu	v0,v0,a1
  402a10:	afa20004 	sw	v0,4(sp)
  402a14:	8fa30000 	lw	v1,0(sp)
  402a18:	8fa20004 	lw	v0,4(sp)
  402a1c:	8fa40008 	lw	a0,8(sp)
  402a20:	00621821 	addu	v1,v1,v0
  402a24:	00641823 	subu	v1,v1,a0
  402a28:	00651821 	addu	v1,v1,a1
  402a2c:	afa30000 	sw	v1,0(sp)
  402a30:	8fa20000 	lw	v0,0(sp)
  402a34:	8fa30004 	lw	v1,4(sp)
  402a38:	8fa40008 	lw	a0,8(sp)
  402a3c:	00431021 	addu	v0,v0,v1
  402a40:	00441023 	subu	v0,v0,a0
  402a44:	00451021 	addu	v0,v0,a1
  402a48:	24a50001 	addiu	a1,a1,1
  402a4c:	28a30002 	slti	v1,a1,2
  402a50:	1460ffa3 	bnez	v1,4028e0 <func_6+0x1f0>
  402a54:	afa20008 	sw	v0,8(sp)
  402a58:	00002821 	move	a1,zero
  402a5c:	8fa20000 	lw	v0,0(sp)
  402a60:	8fa30004 	lw	v1,4(sp)
  402a64:	8fa40008 	lw	a0,8(sp)
  402a68:	00431021 	addu	v0,v0,v1
  402a6c:	00441023 	subu	v0,v0,a0
  402a70:	00451021 	addu	v0,v0,a1
  402a74:	afa20008 	sw	v0,8(sp)
  402a78:	8fa30000 	lw	v1,0(sp)
  402a7c:	8fa20004 	lw	v0,4(sp)
  402a80:	8fa40008 	lw	a0,8(sp)
  402a84:	00621821 	addu	v1,v1,v0
  402a88:	00641823 	subu	v1,v1,a0
  402a8c:	00651821 	addu	v1,v1,a1
  402a90:	afa30004 	sw	v1,4(sp)
  402a94:	8fa20000 	lw	v0,0(sp)
  402a98:	8fa30004 	lw	v1,4(sp)
  402a9c:	8fa40008 	lw	a0,8(sp)
  402aa0:	00431021 	addu	v0,v0,v1
  402aa4:	00441023 	subu	v0,v0,a0
  402aa8:	00451021 	addu	v0,v0,a1
  402aac:	afa20000 	sw	v0,0(sp)
  402ab0:	8fa30000 	lw	v1,0(sp)
  402ab4:	8fa20004 	lw	v0,4(sp)
  402ab8:	8fa40008 	lw	a0,8(sp)
  402abc:	00621821 	addu	v1,v1,v0
  402ac0:	00641823 	subu	v1,v1,a0
  402ac4:	00651821 	addu	v1,v1,a1
  402ac8:	afa30008 	sw	v1,8(sp)
  402acc:	8fa20000 	lw	v0,0(sp)
  402ad0:	8fa30004 	lw	v1,4(sp)
  402ad4:	8fa40008 	lw	a0,8(sp)
  402ad8:	00431021 	addu	v0,v0,v1
  402adc:	00441023 	subu	v0,v0,a0
  402ae0:	00451021 	addu	v0,v0,a1
  402ae4:	afa20004 	sw	v0,4(sp)
  402ae8:	8fa30000 	lw	v1,0(sp)
  402aec:	8fa20004 	lw	v0,4(sp)
  402af0:	8fa40008 	lw	a0,8(sp)
  402af4:	00621821 	addu	v1,v1,v0
  402af8:	00641823 	subu	v1,v1,a0
  402afc:	00651821 	addu	v1,v1,a1
  402b00:	afa30000 	sw	v1,0(sp)
  402b04:	8fa20000 	lw	v0,0(sp)
  402b08:	8fa30004 	lw	v1,4(sp)
  402b0c:	8fa40008 	lw	a0,8(sp)
  402b10:	00431021 	addu	v0,v0,v1
  402b14:	00441023 	subu	v0,v0,a0
  402b18:	00451021 	addu	v0,v0,a1
  402b1c:	24a50001 	addiu	a1,a1,1
  402b20:	28a30002 	slti	v1,a1,2
  402b24:	1460ffcd 	bnez	v1,402a5c <func_6+0x36c>
  402b28:	afa20008 	sw	v0,8(sp)
  402b2c:	00002821 	move	a1,zero
  402b30:	8fa20000 	lw	v0,0(sp)
  402b34:	8fa30004 	lw	v1,4(sp)
  402b38:	8fa40008 	lw	a0,8(sp)
  402b3c:	00431021 	addu	v0,v0,v1
  402b40:	00441023 	subu	v0,v0,a0
  402b44:	00451021 	addu	v0,v0,a1
  402b48:	afa20000 	sw	v0,0(sp)
  402b4c:	8fa30000 	lw	v1,0(sp)
  402b50:	8fa20004 	lw	v0,4(sp)
  402b54:	8fa40008 	lw	a0,8(sp)
  402b58:	00621821 	addu	v1,v1,v0
  402b5c:	00641823 	subu	v1,v1,a0
  402b60:	00651821 	addu	v1,v1,a1
  402b64:	afa30008 	sw	v1,8(sp)
  402b68:	8fa20000 	lw	v0,0(sp)
  402b6c:	8fa30004 	lw	v1,4(sp)
  402b70:	8fa40008 	lw	a0,8(sp)
  402b74:	00431021 	addu	v0,v0,v1
  402b78:	00441023 	subu	v0,v0,a0
  402b7c:	00451021 	addu	v0,v0,a1
  402b80:	afa20004 	sw	v0,4(sp)
  402b84:	8fa30000 	lw	v1,0(sp)
  402b88:	8fa20004 	lw	v0,4(sp)
  402b8c:	8fa40008 	lw	a0,8(sp)
  402b90:	00621821 	addu	v1,v1,v0
  402b94:	00641823 	subu	v1,v1,a0
  402b98:	00651821 	addu	v1,v1,a1
  402b9c:	afa30000 	sw	v1,0(sp)
  402ba0:	8fa20000 	lw	v0,0(sp)
  402ba4:	8fa30004 	lw	v1,4(sp)
  402ba8:	8fa40008 	lw	a0,8(sp)
  402bac:	00431021 	addu	v0,v0,v1
  402bb0:	00441023 	subu	v0,v0,a0
  402bb4:	00451021 	addu	v0,v0,a1
  402bb8:	afa20008 	sw	v0,8(sp)
  402bbc:	8fa30000 	lw	v1,0(sp)
  402bc0:	8fa20004 	lw	v0,4(sp)
  402bc4:	8fa40008 	lw	a0,8(sp)
  402bc8:	00621821 	addu	v1,v1,v0
  402bcc:	00641823 	subu	v1,v1,a0
  402bd0:	00651821 	addu	v1,v1,a1
  402bd4:	afa30004 	sw	v1,4(sp)
  402bd8:	8fa20000 	lw	v0,0(sp)
  402bdc:	8fa30004 	lw	v1,4(sp)
  402be0:	8fa40008 	lw	a0,8(sp)
  402be4:	00431021 	addu	v0,v0,v1
  402be8:	00441023 	subu	v0,v0,a0
  402bec:	00451021 	addu	v0,v0,a1
  402bf0:	afa20000 	sw	v0,0(sp)
  402bf4:	8fa30000 	lw	v1,0(sp)
  402bf8:	8fa20004 	lw	v0,4(sp)
  402bfc:	8fa40008 	lw	a0,8(sp)
  402c00:	00621821 	addu	v1,v1,v0
  402c04:	00641823 	subu	v1,v1,a0
  402c08:	00651821 	addu	v1,v1,a1
  402c0c:	afa30004 	sw	v1,4(sp)
  402c10:	8fa20000 	lw	v0,0(sp)
  402c14:	8fa30004 	lw	v1,4(sp)
  402c18:	8fa40008 	lw	a0,8(sp)
  402c1c:	00431021 	addu	v0,v0,v1
  402c20:	00441023 	subu	v0,v0,a0
  402c24:	00451021 	addu	v0,v0,a1
  402c28:	afa20000 	sw	v0,0(sp)
  402c2c:	8fa30000 	lw	v1,0(sp)
  402c30:	8fa20004 	lw	v0,4(sp)
  402c34:	8fa40008 	lw	a0,8(sp)
  402c38:	00621821 	addu	v1,v1,v0
  402c3c:	00641823 	subu	v1,v1,a0
  402c40:	00651821 	addu	v1,v1,a1
  402c44:	afa30008 	sw	v1,8(sp)
  402c48:	8fa20000 	lw	v0,0(sp)
  402c4c:	8fa30004 	lw	v1,4(sp)
  402c50:	8fa40008 	lw	a0,8(sp)
  402c54:	00431021 	addu	v0,v0,v1
  402c58:	00441023 	subu	v0,v0,a0
  402c5c:	00451021 	addu	v0,v0,a1
  402c60:	afa20004 	sw	v0,4(sp)
  402c64:	8fa30000 	lw	v1,0(sp)
  402c68:	8fa20004 	lw	v0,4(sp)
  402c6c:	8fa40008 	lw	a0,8(sp)
  402c70:	00621821 	addu	v1,v1,v0
  402c74:	00641823 	subu	v1,v1,a0
  402c78:	00651821 	addu	v1,v1,a1
  402c7c:	afa30000 	sw	v1,0(sp)
  402c80:	8fa20000 	lw	v0,0(sp)
  402c84:	8fa30004 	lw	v1,4(sp)
  402c88:	8fa40008 	lw	a0,8(sp)
  402c8c:	00431021 	addu	v0,v0,v1
  402c90:	00441023 	subu	v0,v0,a0
  402c94:	00451021 	addu	v0,v0,a1
  402c98:	afa20008 	sw	v0,8(sp)
  402c9c:	8fa30000 	lw	v1,0(sp)
  402ca0:	8fa20004 	lw	v0,4(sp)
  402ca4:	8fa40008 	lw	a0,8(sp)
  402ca8:	00621821 	addu	v1,v1,v0
  402cac:	00641823 	subu	v1,v1,a0
  402cb0:	00651821 	addu	v1,v1,a1
  402cb4:	afa30004 	sw	v1,4(sp)
  402cb8:	8fa20000 	lw	v0,0(sp)
  402cbc:	8fa30004 	lw	v1,4(sp)
  402cc0:	8fa40008 	lw	a0,8(sp)
  402cc4:	00431021 	addu	v0,v0,v1
  402cc8:	00441023 	subu	v0,v0,a0
  402ccc:	00451021 	addu	v0,v0,a1
  402cd0:	afa20000 	sw	v0,0(sp)
  402cd4:	8fa30000 	lw	v1,0(sp)
  402cd8:	8fa20004 	lw	v0,4(sp)
  402cdc:	8fa40008 	lw	a0,8(sp)
  402ce0:	00621821 	addu	v1,v1,v0
  402ce4:	00641823 	subu	v1,v1,a0
  402ce8:	00651821 	addu	v1,v1,a1
  402cec:	24a50001 	addiu	a1,a1,1
  402cf0:	28a20002 	slti	v0,a1,2
  402cf4:	1440ff8e 	bnez	v0,402b30 <func_6+0x440>
  402cf8:	afa30004 	sw	v1,4(sp)
  402cfc:	8fa20000 	lw	v0,0(sp)
  402d00:	8fa30004 	lw	v1,4(sp)
  402d04:	8fa40008 	lw	a0,8(sp)
  402d08:	00431021 	addu	v0,v0,v1
  402d0c:	00441021 	addu	v0,v0,a0
  402d10:	03e00008 	jr	ra
  402d14:	27bd0010 	addiu	sp,sp,16

00402d18 <func_7>:
  402d18:	27bdfff0 	addiu	sp,sp,-16
  402d1c:	2402000a 	li	v0,10
  402d20:	afa20000 	sw	v0,0(sp)
  402d24:	2403000b 	li	v1,11
  402d28:	2402000c 	li	v0,12
  402d2c:	afa30004 	sw	v1,4(sp)
  402d30:	00002821 	move	a1,zero
  402d34:	afa20008 	sw	v0,8(sp)
  402d38:	8fa20000 	lw	v0,0(sp)
  402d3c:	8fa30004 	lw	v1,4(sp)
  402d40:	8fa40008 	lw	a0,8(sp)
  402d44:	00431021 	addu	v0,v0,v1
  402d48:	00441023 	subu	v0,v0,a0
  402d4c:	00451021 	addu	v0,v0,a1
  402d50:	afa20000 	sw	v0,0(sp)
  402d54:	8fa30000 	lw	v1,0(sp)
  402d58:	8fa20004 	lw	v0,4(sp)
  402d5c:	8fa40008 	lw	a0,8(sp)
  402d60:	00621821 	addu	v1,v1,v0
  402d64:	00641823 	subu	v1,v1,a0
  402d68:	00651821 	addu	v1,v1,a1
  402d6c:	afa30004 	sw	v1,4(sp)
  402d70:	8fa20000 	lw	v0,0(sp)
  402d74:	8fa30004 	lw	v1,4(sp)
  402d78:	8fa40008 	lw	a0,8(sp)
  402d7c:	00431021 	addu	v0,v0,v1
  402d80:	00441023 	subu	v0,v0,a0
  402d84:	00451021 	addu	v0,v0,a1
  402d88:	afa20008 	sw	v0,8(sp)
  402d8c:	8fa30000 	lw	v1,0(sp)
  402d90:	8fa20004 	lw	v0,4(sp)
  402d94:	8fa40008 	lw	a0,8(sp)
  402d98:	00621821 	addu	v1,v1,v0
  402d9c:	00641823 	subu	v1,v1,a0
  402da0:	00651821 	addu	v1,v1,a1
  402da4:	afa30000 	sw	v1,0(sp)
  402da8:	8fa20000 	lw	v0,0(sp)
  402dac:	8fa30004 	lw	v1,4(sp)
  402db0:	8fa40008 	lw	a0,8(sp)
  402db4:	00431021 	addu	v0,v0,v1
  402db8:	00441023 	subu	v0,v0,a0
  402dbc:	00451021 	addu	v0,v0,a1
  402dc0:	afa20004 	sw	v0,4(sp)
  402dc4:	8fa30000 	lw	v1,0(sp)
  402dc8:	8fa20004 	lw	v0,4(sp)
  402dcc:	8fa40008 	lw	a0,8(sp)
  402dd0:	00621821 	addu	v1,v1,v0
  402dd4:	00641823 	subu	v1,v1,a0
  402dd8:	00651821 	addu	v1,v1,a1
  402ddc:	afa30008 	sw	v1,8(sp)
  402de0:	8fa20000 	lw	v0,0(sp)
  402de4:	8fa30004 	lw	v1,4(sp)
  402de8:	8fa40008 	lw	a0,8(sp)
  402dec:	00431021 	addu	v0,v0,v1
  402df0:	00441023 	subu	v0,v0,a0
  402df4:	00451021 	addu	v0,v0,a1
  402df8:	afa20000 	sw	v0,0(sp)
  402dfc:	8fa30000 	lw	v1,0(sp)
  402e00:	8fa20004 	lw	v0,4(sp)
  402e04:	8fa40008 	lw	a0,8(sp)
  402e08:	00621821 	addu	v1,v1,v0
  402e0c:	00641823 	subu	v1,v1,a0
  402e10:	00651821 	addu	v1,v1,a1
  402e14:	afa30004 	sw	v1,4(sp)
  402e18:	8fa20000 	lw	v0,0(sp)
  402e1c:	8fa30004 	lw	v1,4(sp)
  402e20:	8fa40008 	lw	a0,8(sp)
  402e24:	00431021 	addu	v0,v0,v1
  402e28:	00441023 	subu	v0,v0,a0
  402e2c:	00451021 	addu	v0,v0,a1
  402e30:	afa20008 	sw	v0,8(sp)
  402e34:	8fa30000 	lw	v1,0(sp)
  402e38:	8fa20004 	lw	v0,4(sp)
  402e3c:	8fa40008 	lw	a0,8(sp)
  402e40:	00621821 	addu	v1,v1,v0
  402e44:	00641823 	subu	v1,v1,a0
  402e48:	00651821 	addu	v1,v1,a1
  402e4c:	afa30000 	sw	v1,0(sp)
  402e50:	8fa20000 	lw	v0,0(sp)
  402e54:	8fa30004 	lw	v1,4(sp)
  402e58:	8fa40008 	lw	a0,8(sp)
  402e5c:	00431021 	addu	v0,v0,v1
  402e60:	00441023 	subu	v0,v0,a0
  402e64:	00451021 	addu	v0,v0,a1
  402e68:	afa20004 	sw	v0,4(sp)
  402e6c:	8fa30000 	lw	v1,0(sp)
  402e70:	8fa20004 	lw	v0,4(sp)
  402e74:	8fa40008 	lw	a0,8(sp)
  402e78:	00621821 	addu	v1,v1,v0
  402e7c:	00641823 	subu	v1,v1,a0
  402e80:	00651821 	addu	v1,v1,a1
  402e84:	afa30008 	sw	v1,8(sp)
  402e88:	8fa20000 	lw	v0,0(sp)
  402e8c:	8fa30004 	lw	v1,4(sp)
  402e90:	8fa40008 	lw	a0,8(sp)
  402e94:	00431021 	addu	v0,v0,v1
  402e98:	00441023 	subu	v0,v0,a0
  402e9c:	00451021 	addu	v0,v0,a1
  402ea0:	afa20000 	sw	v0,0(sp)
  402ea4:	8fa30000 	lw	v1,0(sp)
  402ea8:	8fa20004 	lw	v0,4(sp)
  402eac:	8fa40008 	lw	a0,8(sp)
  402eb0:	00621821 	addu	v1,v1,v0
  402eb4:	00641823 	subu	v1,v1,a0
  402eb8:	00651821 	addu	v1,v1,a1
  402ebc:	afa30004 	sw	v1,4(sp)
  402ec0:	8fa20000 	lw	v0,0(sp)
  402ec4:	8fa30004 	lw	v1,4(sp)
  402ec8:	8fa40008 	lw	a0,8(sp)
  402ecc:	00431021 	addu	v0,v0,v1
  402ed0:	00441023 	subu	v0,v0,a0
  402ed4:	00451021 	addu	v0,v0,a1
  402ed8:	afa20008 	sw	v0,8(sp)
  402edc:	8fa30000 	lw	v1,0(sp)
  402ee0:	8fa20004 	lw	v0,4(sp)
  402ee4:	8fa40008 	lw	a0,8(sp)
  402ee8:	00621821 	addu	v1,v1,v0
  402eec:	00641823 	subu	v1,v1,a0
  402ef0:	00651821 	addu	v1,v1,a1
  402ef4:	24a50001 	addiu	a1,a1,1
  402ef8:	28a20002 	slti	v0,a1,2
  402efc:	1440ff8e 	bnez	v0,402d38 <func_7+0x20>
  402f00:	afa30000 	sw	v1,0(sp)
  402f04:	00002821 	move	a1,zero
  402f08:	8fa20000 	lw	v0,0(sp)
  402f0c:	8fa30004 	lw	v1,4(sp)
  402f10:	8fa40008 	lw	a0,8(sp)
  402f14:	00431021 	addu	v0,v0,v1
  402f18:	00441023 	subu	v0,v0,a0
  402f1c:	00451021 	addu	v0,v0,a1
  402f20:	afa20004 	sw	v0,4(sp)
  402f24:	8fa30000 	lw	v1,0(sp)
  402f28:	8fa20004 	lw	v0,4(sp)
  402f2c:	8fa40008 	lw	a0,8(sp)
  402f30:	00621821 	addu	v1,v1,v0
  402f34:	00641823 	subu	v1,v1,a0
  402f38:	00651821 	addu	v1,v1,a1
  402f3c:	afa30000 	sw	v1,0(sp)
  402f40:	8fa20000 	lw	v0,0(sp)
  402f44:	8fa30004 	lw	v1,4(sp)
  402f48:	8fa40008 	lw	a0,8(sp)
  402f4c:	00431021 	addu	v0,v0,v1
  402f50:	00441023 	subu	v0,v0,a0
  402f54:	00451021 	addu	v0,v0,a1
  402f58:	afa20008 	sw	v0,8(sp)
  402f5c:	8fa30000 	lw	v1,0(sp)
  402f60:	8fa20004 	lw	v0,4(sp)
  402f64:	8fa40008 	lw	a0,8(sp)
  402f68:	00621821 	addu	v1,v1,v0
  402f6c:	00641823 	subu	v1,v1,a0
  402f70:	00651821 	addu	v1,v1,a1
  402f74:	afa30004 	sw	v1,4(sp)
  402f78:	8fa20000 	lw	v0,0(sp)
  402f7c:	8fa30004 	lw	v1,4(sp)
  402f80:	8fa40008 	lw	a0,8(sp)
  402f84:	00431021 	addu	v0,v0,v1
  402f88:	00441023 	subu	v0,v0,a0
  402f8c:	00451021 	addu	v0,v0,a1
  402f90:	afa20004 	sw	v0,4(sp)
  402f94:	8fa30000 	lw	v1,0(sp)
  402f98:	8fa20004 	lw	v0,4(sp)
  402f9c:	8fa40008 	lw	a0,8(sp)
  402fa0:	00621821 	addu	v1,v1,v0
  402fa4:	00641823 	subu	v1,v1,a0
  402fa8:	00651821 	addu	v1,v1,a1
  402fac:	afa30000 	sw	v1,0(sp)
  402fb0:	8fa20000 	lw	v0,0(sp)
  402fb4:	8fa30004 	lw	v1,4(sp)
  402fb8:	8fa40008 	lw	a0,8(sp)
  402fbc:	00431021 	addu	v0,v0,v1
  402fc0:	00441023 	subu	v0,v0,a0
  402fc4:	00451021 	addu	v0,v0,a1
  402fc8:	afa20008 	sw	v0,8(sp)
  402fcc:	8fa30000 	lw	v1,0(sp)
  402fd0:	8fa20004 	lw	v0,4(sp)
  402fd4:	8fa40008 	lw	a0,8(sp)
  402fd8:	00621821 	addu	v1,v1,v0
  402fdc:	00641823 	subu	v1,v1,a0
  402fe0:	00651821 	addu	v1,v1,a1
  402fe4:	afa30004 	sw	v1,4(sp)
  402fe8:	8fa20000 	lw	v0,0(sp)
  402fec:	8fa30004 	lw	v1,4(sp)
  402ff0:	8fa40008 	lw	a0,8(sp)
  402ff4:	00431021 	addu	v0,v0,v1
  402ff8:	00441023 	subu	v0,v0,a0
  402ffc:	00451021 	addu	v0,v0,a1
  403000:	afa20000 	sw	v0,0(sp)
  403004:	8fa30000 	lw	v1,0(sp)
  403008:	8fa20004 	lw	v0,4(sp)
  40300c:	8fa40008 	lw	a0,8(sp)
  403010:	00621821 	addu	v1,v1,v0
  403014:	00641823 	subu	v1,v1,a0
  403018:	00651821 	addu	v1,v1,a1
  40301c:	afa30008 	sw	v1,8(sp)
  403020:	8fa20000 	lw	v0,0(sp)
  403024:	8fa30004 	lw	v1,4(sp)
  403028:	8fa40008 	lw	a0,8(sp)
  40302c:	00431021 	addu	v0,v0,v1
  403030:	00441023 	subu	v0,v0,a0
  403034:	00451021 	addu	v0,v0,a1
  403038:	afa20004 	sw	v0,4(sp)
  40303c:	8fa30000 	lw	v1,0(sp)
  403040:	8fa20004 	lw	v0,4(sp)
  403044:	8fa40008 	lw	a0,8(sp)
  403048:	00621821 	addu	v1,v1,v0
  40304c:	00641823 	subu	v1,v1,a0
  403050:	00651821 	addu	v1,v1,a1
  403054:	afa30000 	sw	v1,0(sp)
  403058:	8fa20000 	lw	v0,0(sp)
  40305c:	8fa30004 	lw	v1,4(sp)
  403060:	8fa40008 	lw	a0,8(sp)
  403064:	00431021 	addu	v0,v0,v1
  403068:	00441023 	subu	v0,v0,a0
  40306c:	00451021 	addu	v0,v0,a1
  403070:	24a50001 	addiu	a1,a1,1
  403074:	28a30002 	slti	v1,a1,2
  403078:	1460ffa3 	bnez	v1,402f08 <func_7+0x1f0>
  40307c:	afa20008 	sw	v0,8(sp)
  403080:	00002821 	move	a1,zero
  403084:	8fa20000 	lw	v0,0(sp)
  403088:	8fa30004 	lw	v1,4(sp)
  40308c:	8fa40008 	lw	a0,8(sp)
  403090:	00431021 	addu	v0,v0,v1
  403094:	00441023 	subu	v0,v0,a0
  403098:	00451021 	addu	v0,v0,a1
  40309c:	afa20008 	sw	v0,8(sp)
  4030a0:	8fa30000 	lw	v1,0(sp)
  4030a4:	8fa20004 	lw	v0,4(sp)
  4030a8:	8fa40008 	lw	a0,8(sp)
  4030ac:	00621821 	addu	v1,v1,v0
  4030b0:	00641823 	subu	v1,v1,a0
  4030b4:	00651821 	addu	v1,v1,a1
  4030b8:	afa30004 	sw	v1,4(sp)
  4030bc:	8fa20000 	lw	v0,0(sp)
  4030c0:	8fa30004 	lw	v1,4(sp)
  4030c4:	8fa40008 	lw	a0,8(sp)
  4030c8:	00431021 	addu	v0,v0,v1
  4030cc:	00441023 	subu	v0,v0,a0
  4030d0:	00451021 	addu	v0,v0,a1
  4030d4:	afa20000 	sw	v0,0(sp)
  4030d8:	8fa30000 	lw	v1,0(sp)
  4030dc:	8fa20004 	lw	v0,4(sp)
  4030e0:	8fa40008 	lw	a0,8(sp)
  4030e4:	00621821 	addu	v1,v1,v0
  4030e8:	00641823 	subu	v1,v1,a0
  4030ec:	00651821 	addu	v1,v1,a1
  4030f0:	afa30008 	sw	v1,8(sp)
  4030f4:	8fa20000 	lw	v0,0(sp)
  4030f8:	8fa30004 	lw	v1,4(sp)
  4030fc:	8fa40008 	lw	a0,8(sp)
  403100:	00431021 	addu	v0,v0,v1
  403104:	00441023 	subu	v0,v0,a0
  403108:	00451021 	addu	v0,v0,a1
  40310c:	afa20004 	sw	v0,4(sp)
  403110:	8fa30000 	lw	v1,0(sp)
  403114:	8fa20004 	lw	v0,4(sp)
  403118:	8fa40008 	lw	a0,8(sp)
  40311c:	00621821 	addu	v1,v1,v0
  403120:	00641823 	subu	v1,v1,a0
  403124:	00651821 	addu	v1,v1,a1
  403128:	afa30000 	sw	v1,0(sp)
  40312c:	8fa20000 	lw	v0,0(sp)
  403130:	8fa30004 	lw	v1,4(sp)
  403134:	8fa40008 	lw	a0,8(sp)
  403138:	00431021 	addu	v0,v0,v1
  40313c:	00441023 	subu	v0,v0,a0
  403140:	00451021 	addu	v0,v0,a1
  403144:	24a50001 	addiu	a1,a1,1
  403148:	28a30002 	slti	v1,a1,2
  40314c:	1460ffcd 	bnez	v1,403084 <func_7+0x36c>
  403150:	afa20008 	sw	v0,8(sp)
  403154:	00002821 	move	a1,zero
  403158:	8fa20000 	lw	v0,0(sp)
  40315c:	8fa30004 	lw	v1,4(sp)
  403160:	8fa40008 	lw	a0,8(sp)
  403164:	00431021 	addu	v0,v0,v1
  403168:	00441023 	subu	v0,v0,a0
  40316c:	00451021 	addu	v0,v0,a1
  403170:	afa20000 	sw	v0,0(sp)
  403174:	8fa30000 	lw	v1,0(sp)
  403178:	8fa20004 	lw	v0,4(sp)
  40317c:	8fa40008 	lw	a0,8(sp)
  403180:	00621821 	addu	v1,v1,v0
  403184:	00641823 	subu	v1,v1,a0
  403188:	00651821 	addu	v1,v1,a1
  40318c:	afa30008 	sw	v1,8(sp)
  403190:	8fa20000 	lw	v0,0(sp)
  403194:	8fa30004 	lw	v1,4(sp)
  403198:	8fa40008 	lw	a0,8(sp)
  40319c:	00431021 	addu	v0,v0,v1
  4031a0:	00441023 	subu	v0,v0,a0
  4031a4:	00451021 	addu	v0,v0,a1
  4031a8:	afa20004 	sw	v0,4(sp)
  4031ac:	8fa30000 	lw	v1,0(sp)
  4031b0:	8fa20004 	lw	v0,4(sp)
  4031b4:	8fa40008 	lw	a0,8(sp)
  4031b8:	00621821 	addu	v1,v1,v0
  4031bc:	00641823 	subu	v1,v1,a0
  4031c0:	00651821 	addu	v1,v1,a1
  4031c4:	afa30000 	sw	v1,0(sp)
  4031c8:	8fa20000 	lw	v0,0(sp)
  4031cc:	8fa30004 	lw	v1,4(sp)
  4031d0:	8fa40008 	lw	a0,8(sp)
  4031d4:	00431021 	addu	v0,v0,v1
  4031d8:	00441023 	subu	v0,v0,a0
  4031dc:	00451021 	addu	v0,v0,a1
  4031e0:	afa20008 	sw	v0,8(sp)
  4031e4:	8fa30000 	lw	v1,0(sp)
  4031e8:	8fa20004 	lw	v0,4(sp)
  4031ec:	8fa40008 	lw	a0,8(sp)
  4031f0:	00621821 	addu	v1,v1,v0
  4031f4:	00641823 	subu	v1,v1,a0
  4031f8:	00651821 	addu	v1,v1,a1
  4031fc:	afa30004 	sw	v1,4(sp)
  403200:	8fa20000 	lw	v0,0(sp)
  403204:	8fa30004 	lw	v1,4(sp)
  403208:	8fa40008 	lw	a0,8(sp)
  40320c:	00431021 	addu	v0,v0,v1
  403210:	00441023 	subu	v0,v0,a0
  403214:	00451021 	addu	v0,v0,a1
  403218:	afa20000 	sw	v0,0(sp)
  40321c:	8fa30000 	lw	v1,0(sp)
  403220:	8fa20004 	lw	v0,4(sp)
  403224:	8fa40008 	lw	a0,8(sp)
  403228:	00621821 	addu	v1,v1,v0
  40322c:	00641823 	subu	v1,v1,a0
  403230:	00651821 	addu	v1,v1,a1
  403234:	afa30004 	sw	v1,4(sp)
  403238:	8fa20000 	lw	v0,0(sp)
  40323c:	8fa30004 	lw	v1,4(sp)
  403240:	8fa40008 	lw	a0,8(sp)
  403244:	00431021 	addu	v0,v0,v1
  403248:	00441023 	subu	v0,v0,a0
  40324c:	00451021 	addu	v0,v0,a1
  403250:	afa20000 	sw	v0,0(sp)
  403254:	8fa30000 	lw	v1,0(sp)
  403258:	8fa20004 	lw	v0,4(sp)
  40325c:	8fa40008 	lw	a0,8(sp)
  403260:	00621821 	addu	v1,v1,v0
  403264:	00641823 	subu	v1,v1,a0
  403268:	00651821 	addu	v1,v1,a1
  40326c:	afa30008 	sw	v1,8(sp)
  403270:	8fa20000 	lw	v0,0(sp)
  403274:	8fa30004 	lw	v1,4(sp)
  403278:	8fa40008 	lw	a0,8(sp)
  40327c:	00431021 	addu	v0,v0,v1
  403280:	00441023 	subu	v0,v0,a0
  403284:	00451021 	addu	v0,v0,a1
  403288:	afa20004 	sw	v0,4(sp)
  40328c:	8fa30000 	lw	v1,0(sp)
  403290:	8fa20004 	lw	v0,4(sp)
  403294:	8fa40008 	lw	a0,8(sp)
  403298:	00621821 	addu	v1,v1,v0
  40329c:	00641823 	subu	v1,v1,a0
  4032a0:	00651821 	addu	v1,v1,a1
  4032a4:	afa30000 	sw	v1,0(sp)
  4032a8:	8fa20000 	lw	v0,0(sp)
  4032ac:	8fa30004 	lw	v1,4(sp)
  4032b0:	8fa40008 	lw	a0,8(sp)
  4032b4:	00431021 	addu	v0,v0,v1
  4032b8:	00441023 	subu	v0,v0,a0
  4032bc:	00451021 	addu	v0,v0,a1
  4032c0:	afa20008 	sw	v0,8(sp)
  4032c4:	8fa30000 	lw	v1,0(sp)
  4032c8:	8fa20004 	lw	v0,4(sp)
  4032cc:	8fa40008 	lw	a0,8(sp)
  4032d0:	00621821 	addu	v1,v1,v0
  4032d4:	00641823 	subu	v1,v1,a0
  4032d8:	00651821 	addu	v1,v1,a1
  4032dc:	afa30004 	sw	v1,4(sp)
  4032e0:	8fa20000 	lw	v0,0(sp)
  4032e4:	8fa30004 	lw	v1,4(sp)
  4032e8:	8fa40008 	lw	a0,8(sp)
  4032ec:	00431021 	addu	v0,v0,v1
  4032f0:	00441023 	subu	v0,v0,a0
  4032f4:	00451021 	addu	v0,v0,a1
  4032f8:	afa20000 	sw	v0,0(sp)
  4032fc:	8fa30000 	lw	v1,0(sp)
  403300:	8fa20004 	lw	v0,4(sp)
  403304:	8fa40008 	lw	a0,8(sp)
  403308:	00621821 	addu	v1,v1,v0
  40330c:	00641823 	subu	v1,v1,a0
  403310:	00651821 	addu	v1,v1,a1
  403314:	24a50001 	addiu	a1,a1,1
  403318:	28a20002 	slti	v0,a1,2
  40331c:	1440ff8e 	bnez	v0,403158 <func_7+0x440>
  403320:	afa30004 	sw	v1,4(sp)
  403324:	8fa20000 	lw	v0,0(sp)
  403328:	8fa30004 	lw	v1,4(sp)
  40332c:	8fa40008 	lw	a0,8(sp)
  403330:	00431021 	addu	v0,v0,v1
  403334:	00441021 	addu	v0,v0,a0
  403338:	03e00008 	jr	ra
  40333c:	27bd0010 	addiu	sp,sp,16

00403340 <func_8>:
  403340:	27bdfff0 	addiu	sp,sp,-16
  403344:	2402000a 	li	v0,10
  403348:	afa20000 	sw	v0,0(sp)
  40334c:	2403000b 	li	v1,11
  403350:	2402000c 	li	v0,12
  403354:	afa30004 	sw	v1,4(sp)
  403358:	00002821 	move	a1,zero
  40335c:	afa20008 	sw	v0,8(sp)
  403360:	8fa20000 	lw	v0,0(sp)
  403364:	8fa30004 	lw	v1,4(sp)
  403368:	8fa40008 	lw	a0,8(sp)
  40336c:	00431021 	addu	v0,v0,v1
  403370:	00441023 	subu	v0,v0,a0
  403374:	00451021 	addu	v0,v0,a1
  403378:	afa20000 	sw	v0,0(sp)
  40337c:	8fa30000 	lw	v1,0(sp)
  403380:	8fa20004 	lw	v0,4(sp)
  403384:	8fa40008 	lw	a0,8(sp)
  403388:	00621821 	addu	v1,v1,v0
  40338c:	00641823 	subu	v1,v1,a0
  403390:	00651821 	addu	v1,v1,a1
  403394:	afa30004 	sw	v1,4(sp)
  403398:	8fa20000 	lw	v0,0(sp)
  40339c:	8fa30004 	lw	v1,4(sp)
  4033a0:	8fa40008 	lw	a0,8(sp)
  4033a4:	00431021 	addu	v0,v0,v1
  4033a8:	00441023 	subu	v0,v0,a0
  4033ac:	00451021 	addu	v0,v0,a1
  4033b0:	afa20008 	sw	v0,8(sp)
  4033b4:	8fa30000 	lw	v1,0(sp)
  4033b8:	8fa20004 	lw	v0,4(sp)
  4033bc:	8fa40008 	lw	a0,8(sp)
  4033c0:	00621821 	addu	v1,v1,v0
  4033c4:	00641823 	subu	v1,v1,a0
  4033c8:	00651821 	addu	v1,v1,a1
  4033cc:	afa30000 	sw	v1,0(sp)
  4033d0:	8fa20000 	lw	v0,0(sp)
  4033d4:	8fa30004 	lw	v1,4(sp)
  4033d8:	8fa40008 	lw	a0,8(sp)
  4033dc:	00431021 	addu	v0,v0,v1
  4033e0:	00441023 	subu	v0,v0,a0
  4033e4:	00451021 	addu	v0,v0,a1
  4033e8:	afa20004 	sw	v0,4(sp)
  4033ec:	8fa30000 	lw	v1,0(sp)
  4033f0:	8fa20004 	lw	v0,4(sp)
  4033f4:	8fa40008 	lw	a0,8(sp)
  4033f8:	00621821 	addu	v1,v1,v0
  4033fc:	00641823 	subu	v1,v1,a0
  403400:	00651821 	addu	v1,v1,a1
  403404:	afa30008 	sw	v1,8(sp)
  403408:	8fa20000 	lw	v0,0(sp)
  40340c:	8fa30004 	lw	v1,4(sp)
  403410:	8fa40008 	lw	a0,8(sp)
  403414:	00431021 	addu	v0,v0,v1
  403418:	00441023 	subu	v0,v0,a0
  40341c:	00451021 	addu	v0,v0,a1
  403420:	afa20000 	sw	v0,0(sp)
  403424:	8fa30000 	lw	v1,0(sp)
  403428:	8fa20004 	lw	v0,4(sp)
  40342c:	8fa40008 	lw	a0,8(sp)
  403430:	00621821 	addu	v1,v1,v0
  403434:	00641823 	subu	v1,v1,a0
  403438:	00651821 	addu	v1,v1,a1
  40343c:	afa30004 	sw	v1,4(sp)
  403440:	8fa20000 	lw	v0,0(sp)
  403444:	8fa30004 	lw	v1,4(sp)
  403448:	8fa40008 	lw	a0,8(sp)
  40344c:	00431021 	addu	v0,v0,v1
  403450:	00441023 	subu	v0,v0,a0
  403454:	00451021 	addu	v0,v0,a1
  403458:	afa20008 	sw	v0,8(sp)
  40345c:	8fa30000 	lw	v1,0(sp)
  403460:	8fa20004 	lw	v0,4(sp)
  403464:	8fa40008 	lw	a0,8(sp)
  403468:	00621821 	addu	v1,v1,v0
  40346c:	00641823 	subu	v1,v1,a0
  403470:	00651821 	addu	v1,v1,a1
  403474:	afa30000 	sw	v1,0(sp)
  403478:	8fa20000 	lw	v0,0(sp)
  40347c:	8fa30004 	lw	v1,4(sp)
  403480:	8fa40008 	lw	a0,8(sp)
  403484:	00431021 	addu	v0,v0,v1
  403488:	00441023 	subu	v0,v0,a0
  40348c:	00451021 	addu	v0,v0,a1
  403490:	afa20004 	sw	v0,4(sp)
  403494:	8fa30000 	lw	v1,0(sp)
  403498:	8fa20004 	lw	v0,4(sp)
  40349c:	8fa40008 	lw	a0,8(sp)
  4034a0:	00621821 	addu	v1,v1,v0
  4034a4:	00641823 	subu	v1,v1,a0
  4034a8:	00651821 	addu	v1,v1,a1
  4034ac:	afa30008 	sw	v1,8(sp)
  4034b0:	8fa20000 	lw	v0,0(sp)
  4034b4:	8fa30004 	lw	v1,4(sp)
  4034b8:	8fa40008 	lw	a0,8(sp)
  4034bc:	00431021 	addu	v0,v0,v1
  4034c0:	00441023 	subu	v0,v0,a0
  4034c4:	00451021 	addu	v0,v0,a1
  4034c8:	afa20000 	sw	v0,0(sp)
  4034cc:	8fa30000 	lw	v1,0(sp)
  4034d0:	8fa20004 	lw	v0,4(sp)
  4034d4:	8fa40008 	lw	a0,8(sp)
  4034d8:	00621821 	addu	v1,v1,v0
  4034dc:	00641823 	subu	v1,v1,a0
  4034e0:	00651821 	addu	v1,v1,a1
  4034e4:	afa30004 	sw	v1,4(sp)
  4034e8:	8fa20000 	lw	v0,0(sp)
  4034ec:	8fa30004 	lw	v1,4(sp)
  4034f0:	8fa40008 	lw	a0,8(sp)
  4034f4:	00431021 	addu	v0,v0,v1
  4034f8:	00441023 	subu	v0,v0,a0
  4034fc:	00451021 	addu	v0,v0,a1
  403500:	afa20008 	sw	v0,8(sp)
  403504:	8fa30000 	lw	v1,0(sp)
  403508:	8fa20004 	lw	v0,4(sp)
  40350c:	8fa40008 	lw	a0,8(sp)
  403510:	00621821 	addu	v1,v1,v0
  403514:	00641823 	subu	v1,v1,a0
  403518:	00651821 	addu	v1,v1,a1
  40351c:	24a50001 	addiu	a1,a1,1
  403520:	28a20002 	slti	v0,a1,2
  403524:	1440ff8e 	bnez	v0,403360 <func_8+0x20>
  403528:	afa30000 	sw	v1,0(sp)
  40352c:	00002821 	move	a1,zero
  403530:	8fa20000 	lw	v0,0(sp)
  403534:	8fa30004 	lw	v1,4(sp)
  403538:	8fa40008 	lw	a0,8(sp)
  40353c:	00431021 	addu	v0,v0,v1
  403540:	00441023 	subu	v0,v0,a0
  403544:	00451021 	addu	v0,v0,a1
  403548:	afa20004 	sw	v0,4(sp)
  40354c:	8fa30000 	lw	v1,0(sp)
  403550:	8fa20004 	lw	v0,4(sp)
  403554:	8fa40008 	lw	a0,8(sp)
  403558:	00621821 	addu	v1,v1,v0
  40355c:	00641823 	subu	v1,v1,a0
  403560:	00651821 	addu	v1,v1,a1
  403564:	afa30000 	sw	v1,0(sp)
  403568:	8fa20000 	lw	v0,0(sp)
  40356c:	8fa30004 	lw	v1,4(sp)
  403570:	8fa40008 	lw	a0,8(sp)
  403574:	00431021 	addu	v0,v0,v1
  403578:	00441023 	subu	v0,v0,a0
  40357c:	00451021 	addu	v0,v0,a1
  403580:	afa20008 	sw	v0,8(sp)
  403584:	8fa30000 	lw	v1,0(sp)
  403588:	8fa20004 	lw	v0,4(sp)
  40358c:	8fa40008 	lw	a0,8(sp)
  403590:	00621821 	addu	v1,v1,v0
  403594:	00641823 	subu	v1,v1,a0
  403598:	00651821 	addu	v1,v1,a1
  40359c:	afa30004 	sw	v1,4(sp)
  4035a0:	8fa20000 	lw	v0,0(sp)
  4035a4:	8fa30004 	lw	v1,4(sp)
  4035a8:	8fa40008 	lw	a0,8(sp)
  4035ac:	00431021 	addu	v0,v0,v1
  4035b0:	00441023 	subu	v0,v0,a0
  4035b4:	00451021 	addu	v0,v0,a1
  4035b8:	afa20004 	sw	v0,4(sp)
  4035bc:	8fa30000 	lw	v1,0(sp)
  4035c0:	8fa20004 	lw	v0,4(sp)
  4035c4:	8fa40008 	lw	a0,8(sp)
  4035c8:	00621821 	addu	v1,v1,v0
  4035cc:	00641823 	subu	v1,v1,a0
  4035d0:	00651821 	addu	v1,v1,a1
  4035d4:	afa30000 	sw	v1,0(sp)
  4035d8:	8fa20000 	lw	v0,0(sp)
  4035dc:	8fa30004 	lw	v1,4(sp)
  4035e0:	8fa40008 	lw	a0,8(sp)
  4035e4:	00431021 	addu	v0,v0,v1
  4035e8:	00441023 	subu	v0,v0,a0
  4035ec:	00451021 	addu	v0,v0,a1
  4035f0:	afa20008 	sw	v0,8(sp)
  4035f4:	8fa30000 	lw	v1,0(sp)
  4035f8:	8fa20004 	lw	v0,4(sp)
  4035fc:	8fa40008 	lw	a0,8(sp)
  403600:	00621821 	addu	v1,v1,v0
  403604:	00641823 	subu	v1,v1,a0
  403608:	00651821 	addu	v1,v1,a1
  40360c:	afa30004 	sw	v1,4(sp)
  403610:	8fa20000 	lw	v0,0(sp)
  403614:	8fa30004 	lw	v1,4(sp)
  403618:	8fa40008 	lw	a0,8(sp)
  40361c:	00431021 	addu	v0,v0,v1
  403620:	00441023 	subu	v0,v0,a0
  403624:	00451021 	addu	v0,v0,a1
  403628:	afa20000 	sw	v0,0(sp)
  40362c:	8fa30000 	lw	v1,0(sp)
  403630:	8fa20004 	lw	v0,4(sp)
  403634:	8fa40008 	lw	a0,8(sp)
  403638:	00621821 	addu	v1,v1,v0
  40363c:	00641823 	subu	v1,v1,a0
  403640:	00651821 	addu	v1,v1,a1
  403644:	afa30008 	sw	v1,8(sp)
  403648:	8fa20000 	lw	v0,0(sp)
  40364c:	8fa30004 	lw	v1,4(sp)
  403650:	8fa40008 	lw	a0,8(sp)
  403654:	00431021 	addu	v0,v0,v1
  403658:	00441023 	subu	v0,v0,a0
  40365c:	00451021 	addu	v0,v0,a1
  403660:	afa20004 	sw	v0,4(sp)
  403664:	8fa30000 	lw	v1,0(sp)
  403668:	8fa20004 	lw	v0,4(sp)
  40366c:	8fa40008 	lw	a0,8(sp)
  403670:	00621821 	addu	v1,v1,v0
  403674:	00641823 	subu	v1,v1,a0
  403678:	00651821 	addu	v1,v1,a1
  40367c:	afa30000 	sw	v1,0(sp)
  403680:	8fa20000 	lw	v0,0(sp)
  403684:	8fa30004 	lw	v1,4(sp)
  403688:	8fa40008 	lw	a0,8(sp)
  40368c:	00431021 	addu	v0,v0,v1
  403690:	00441023 	subu	v0,v0,a0
  403694:	00451021 	addu	v0,v0,a1
  403698:	24a50001 	addiu	a1,a1,1
  40369c:	28a30002 	slti	v1,a1,2
  4036a0:	1460ffa3 	bnez	v1,403530 <func_8+0x1f0>
  4036a4:	afa20008 	sw	v0,8(sp)
  4036a8:	00002821 	move	a1,zero
  4036ac:	8fa20000 	lw	v0,0(sp)
  4036b0:	8fa30004 	lw	v1,4(sp)
  4036b4:	8fa40008 	lw	a0,8(sp)
  4036b8:	00431021 	addu	v0,v0,v1
  4036bc:	00441023 	subu	v0,v0,a0
  4036c0:	00451021 	addu	v0,v0,a1
  4036c4:	afa20008 	sw	v0,8(sp)
  4036c8:	8fa30000 	lw	v1,0(sp)
  4036cc:	8fa20004 	lw	v0,4(sp)
  4036d0:	8fa40008 	lw	a0,8(sp)
  4036d4:	00621821 	addu	v1,v1,v0
  4036d8:	00641823 	subu	v1,v1,a0
  4036dc:	00651821 	addu	v1,v1,a1
  4036e0:	afa30004 	sw	v1,4(sp)
  4036e4:	8fa20000 	lw	v0,0(sp)
  4036e8:	8fa30004 	lw	v1,4(sp)
  4036ec:	8fa40008 	lw	a0,8(sp)
  4036f0:	00431021 	addu	v0,v0,v1
  4036f4:	00441023 	subu	v0,v0,a0
  4036f8:	00451021 	addu	v0,v0,a1
  4036fc:	afa20000 	sw	v0,0(sp)
  403700:	8fa30000 	lw	v1,0(sp)
  403704:	8fa20004 	lw	v0,4(sp)
  403708:	8fa40008 	lw	a0,8(sp)
  40370c:	00621821 	addu	v1,v1,v0
  403710:	00641823 	subu	v1,v1,a0
  403714:	00651821 	addu	v1,v1,a1
  403718:	afa30008 	sw	v1,8(sp)
  40371c:	8fa20000 	lw	v0,0(sp)
  403720:	8fa30004 	lw	v1,4(sp)
  403724:	8fa40008 	lw	a0,8(sp)
  403728:	00431021 	addu	v0,v0,v1
  40372c:	00441023 	subu	v0,v0,a0
  403730:	00451021 	addu	v0,v0,a1
  403734:	afa20004 	sw	v0,4(sp)
  403738:	8fa30000 	lw	v1,0(sp)
  40373c:	8fa20004 	lw	v0,4(sp)
  403740:	8fa40008 	lw	a0,8(sp)
  403744:	00621821 	addu	v1,v1,v0
  403748:	00641823 	subu	v1,v1,a0
  40374c:	00651821 	addu	v1,v1,a1
  403750:	afa30000 	sw	v1,0(sp)
  403754:	8fa20000 	lw	v0,0(sp)
  403758:	8fa30004 	lw	v1,4(sp)
  40375c:	8fa40008 	lw	a0,8(sp)
  403760:	00431021 	addu	v0,v0,v1
  403764:	00441023 	subu	v0,v0,a0
  403768:	00451021 	addu	v0,v0,a1
  40376c:	24a50001 	addiu	a1,a1,1
  403770:	28a30002 	slti	v1,a1,2
  403774:	1460ffcd 	bnez	v1,4036ac <func_8+0x36c>
  403778:	afa20008 	sw	v0,8(sp)
  40377c:	00002821 	move	a1,zero
  403780:	8fa20000 	lw	v0,0(sp)
  403784:	8fa30004 	lw	v1,4(sp)
  403788:	8fa40008 	lw	a0,8(sp)
  40378c:	00431021 	addu	v0,v0,v1
  403790:	00441023 	subu	v0,v0,a0
  403794:	00451021 	addu	v0,v0,a1
  403798:	afa20000 	sw	v0,0(sp)
  40379c:	8fa30000 	lw	v1,0(sp)
  4037a0:	8fa20004 	lw	v0,4(sp)
  4037a4:	8fa40008 	lw	a0,8(sp)
  4037a8:	00621821 	addu	v1,v1,v0
  4037ac:	00641823 	subu	v1,v1,a0
  4037b0:	00651821 	addu	v1,v1,a1
  4037b4:	afa30008 	sw	v1,8(sp)
  4037b8:	8fa20000 	lw	v0,0(sp)
  4037bc:	8fa30004 	lw	v1,4(sp)
  4037c0:	8fa40008 	lw	a0,8(sp)
  4037c4:	00431021 	addu	v0,v0,v1
  4037c8:	00441023 	subu	v0,v0,a0
  4037cc:	00451021 	addu	v0,v0,a1
  4037d0:	afa20004 	sw	v0,4(sp)
  4037d4:	8fa30000 	lw	v1,0(sp)
  4037d8:	8fa20004 	lw	v0,4(sp)
  4037dc:	8fa40008 	lw	a0,8(sp)
  4037e0:	00621821 	addu	v1,v1,v0
  4037e4:	00641823 	subu	v1,v1,a0
  4037e8:	00651821 	addu	v1,v1,a1
  4037ec:	afa30000 	sw	v1,0(sp)
  4037f0:	8fa20000 	lw	v0,0(sp)
  4037f4:	8fa30004 	lw	v1,4(sp)
  4037f8:	8fa40008 	lw	a0,8(sp)
  4037fc:	00431021 	addu	v0,v0,v1
  403800:	00441023 	subu	v0,v0,a0
  403804:	00451021 	addu	v0,v0,a1
  403808:	afa20008 	sw	v0,8(sp)
  40380c:	8fa30000 	lw	v1,0(sp)
  403810:	8fa20004 	lw	v0,4(sp)
  403814:	8fa40008 	lw	a0,8(sp)
  403818:	00621821 	addu	v1,v1,v0
  40381c:	00641823 	subu	v1,v1,a0
  403820:	00651821 	addu	v1,v1,a1
  403824:	afa30004 	sw	v1,4(sp)
  403828:	8fa20000 	lw	v0,0(sp)
  40382c:	8fa30004 	lw	v1,4(sp)
  403830:	8fa40008 	lw	a0,8(sp)
  403834:	00431021 	addu	v0,v0,v1
  403838:	00441023 	subu	v0,v0,a0
  40383c:	00451021 	addu	v0,v0,a1
  403840:	afa20000 	sw	v0,0(sp)
  403844:	8fa30000 	lw	v1,0(sp)
  403848:	8fa20004 	lw	v0,4(sp)
  40384c:	8fa40008 	lw	a0,8(sp)
  403850:	00621821 	addu	v1,v1,v0
  403854:	00641823 	subu	v1,v1,a0
  403858:	00651821 	addu	v1,v1,a1
  40385c:	afa30004 	sw	v1,4(sp)
  403860:	8fa20000 	lw	v0,0(sp)
  403864:	8fa30004 	lw	v1,4(sp)
  403868:	8fa40008 	lw	a0,8(sp)
  40386c:	00431021 	addu	v0,v0,v1
  403870:	00441023 	subu	v0,v0,a0
  403874:	00451021 	addu	v0,v0,a1
  403878:	afa20000 	sw	v0,0(sp)
  40387c:	8fa30000 	lw	v1,0(sp)
  403880:	8fa20004 	lw	v0,4(sp)
  403884:	8fa40008 	lw	a0,8(sp)
  403888:	00621821 	addu	v1,v1,v0
  40388c:	00641823 	subu	v1,v1,a0
  403890:	00651821 	addu	v1,v1,a1
  403894:	afa30008 	sw	v1,8(sp)
  403898:	8fa20000 	lw	v0,0(sp)
  40389c:	8fa30004 	lw	v1,4(sp)
  4038a0:	8fa40008 	lw	a0,8(sp)
  4038a4:	00431021 	addu	v0,v0,v1
  4038a8:	00441023 	subu	v0,v0,a0
  4038ac:	00451021 	addu	v0,v0,a1
  4038b0:	afa20004 	sw	v0,4(sp)
  4038b4:	8fa30000 	lw	v1,0(sp)
  4038b8:	8fa20004 	lw	v0,4(sp)
  4038bc:	8fa40008 	lw	a0,8(sp)
  4038c0:	00621821 	addu	v1,v1,v0
  4038c4:	00641823 	subu	v1,v1,a0
  4038c8:	00651821 	addu	v1,v1,a1
  4038cc:	afa30000 	sw	v1,0(sp)
  4038d0:	8fa20000 	lw	v0,0(sp)
  4038d4:	8fa30004 	lw	v1,4(sp)
  4038d8:	8fa40008 	lw	a0,8(sp)
  4038dc:	00431021 	addu	v0,v0,v1
  4038e0:	00441023 	subu	v0,v0,a0
  4038e4:	00451021 	addu	v0,v0,a1
  4038e8:	afa20008 	sw	v0,8(sp)
  4038ec:	8fa30000 	lw	v1,0(sp)
  4038f0:	8fa20004 	lw	v0,4(sp)
  4038f4:	8fa40008 	lw	a0,8(sp)
  4038f8:	00621821 	addu	v1,v1,v0
  4038fc:	00641823 	subu	v1,v1,a0
  403900:	00651821 	addu	v1,v1,a1
  403904:	afa30004 	sw	v1,4(sp)
  403908:	8fa20000 	lw	v0,0(sp)
  40390c:	8fa30004 	lw	v1,4(sp)
  403910:	8fa40008 	lw	a0,8(sp)
  403914:	00431021 	addu	v0,v0,v1
  403918:	00441023 	subu	v0,v0,a0
  40391c:	00451021 	addu	v0,v0,a1
  403920:	afa20000 	sw	v0,0(sp)
  403924:	8fa30000 	lw	v1,0(sp)
  403928:	8fa20004 	lw	v0,4(sp)
  40392c:	8fa40008 	lw	a0,8(sp)
  403930:	00621821 	addu	v1,v1,v0
  403934:	00641823 	subu	v1,v1,a0
  403938:	00651821 	addu	v1,v1,a1
  40393c:	24a50001 	addiu	a1,a1,1
  403940:	28a20002 	slti	v0,a1,2
  403944:	1440ff8e 	bnez	v0,403780 <func_8+0x440>
  403948:	afa30004 	sw	v1,4(sp)
  40394c:	8fa20000 	lw	v0,0(sp)
  403950:	8fa30004 	lw	v1,4(sp)
  403954:	8fa40008 	lw	a0,8(sp)
  403958:	00431021 	addu	v0,v0,v1
  40395c:	00441021 	addu	v0,v0,a0
  403960:	03e00008 	jr	ra
  403964:	27bd0010 	addiu	sp,sp,16

00403968 <func_9>:
  403968:	27bdfff0 	addiu	sp,sp,-16
  40396c:	2402000a 	li	v0,10
  403970:	afa20000 	sw	v0,0(sp)
  403974:	2403000b 	li	v1,11
  403978:	2402000c 	li	v0,12
  40397c:	afa30004 	sw	v1,4(sp)
  403980:	00002821 	move	a1,zero
  403984:	afa20008 	sw	v0,8(sp)
  403988:	8fa20000 	lw	v0,0(sp)
  40398c:	8fa30004 	lw	v1,4(sp)
  403990:	8fa40008 	lw	a0,8(sp)
  403994:	00431021 	addu	v0,v0,v1
  403998:	00441023 	subu	v0,v0,a0
  40399c:	00451021 	addu	v0,v0,a1
  4039a0:	afa20000 	sw	v0,0(sp)
  4039a4:	8fa30000 	lw	v1,0(sp)
  4039a8:	8fa20004 	lw	v0,4(sp)
  4039ac:	8fa40008 	lw	a0,8(sp)
  4039b0:	00621821 	addu	v1,v1,v0
  4039b4:	00641823 	subu	v1,v1,a0
  4039b8:	00651821 	addu	v1,v1,a1
  4039bc:	afa30004 	sw	v1,4(sp)
  4039c0:	8fa20000 	lw	v0,0(sp)
  4039c4:	8fa30004 	lw	v1,4(sp)
  4039c8:	8fa40008 	lw	a0,8(sp)
  4039cc:	00431021 	addu	v0,v0,v1
  4039d0:	00441023 	subu	v0,v0,a0
  4039d4:	00451021 	addu	v0,v0,a1
  4039d8:	afa20008 	sw	v0,8(sp)
  4039dc:	8fa30000 	lw	v1,0(sp)
  4039e0:	8fa20004 	lw	v0,4(sp)
  4039e4:	8fa40008 	lw	a0,8(sp)
  4039e8:	00621821 	addu	v1,v1,v0
  4039ec:	00641823 	subu	v1,v1,a0
  4039f0:	00651821 	addu	v1,v1,a1
  4039f4:	afa30000 	sw	v1,0(sp)
  4039f8:	8fa20000 	lw	v0,0(sp)
  4039fc:	8fa30004 	lw	v1,4(sp)
  403a00:	8fa40008 	lw	a0,8(sp)
  403a04:	00431021 	addu	v0,v0,v1
  403a08:	00441023 	subu	v0,v0,a0
  403a0c:	00451021 	addu	v0,v0,a1
  403a10:	afa20004 	sw	v0,4(sp)
  403a14:	8fa30000 	lw	v1,0(sp)
  403a18:	8fa20004 	lw	v0,4(sp)
  403a1c:	8fa40008 	lw	a0,8(sp)
  403a20:	00621821 	addu	v1,v1,v0
  403a24:	00641823 	subu	v1,v1,a0
  403a28:	00651821 	addu	v1,v1,a1
  403a2c:	afa30008 	sw	v1,8(sp)
  403a30:	8fa20000 	lw	v0,0(sp)
  403a34:	8fa30004 	lw	v1,4(sp)
  403a38:	8fa40008 	lw	a0,8(sp)
  403a3c:	00431021 	addu	v0,v0,v1
  403a40:	00441023 	subu	v0,v0,a0
  403a44:	00451021 	addu	v0,v0,a1
  403a48:	afa20000 	sw	v0,0(sp)
  403a4c:	8fa30000 	lw	v1,0(sp)
  403a50:	8fa20004 	lw	v0,4(sp)
  403a54:	8fa40008 	lw	a0,8(sp)
  403a58:	00621821 	addu	v1,v1,v0
  403a5c:	00641823 	subu	v1,v1,a0
  403a60:	00651821 	addu	v1,v1,a1
  403a64:	afa30004 	sw	v1,4(sp)
  403a68:	8fa20000 	lw	v0,0(sp)
  403a6c:	8fa30004 	lw	v1,4(sp)
  403a70:	8fa40008 	lw	a0,8(sp)
  403a74:	00431021 	addu	v0,v0,v1
  403a78:	00441023 	subu	v0,v0,a0
  403a7c:	00451021 	addu	v0,v0,a1
  403a80:	afa20008 	sw	v0,8(sp)
  403a84:	8fa30000 	lw	v1,0(sp)
  403a88:	8fa20004 	lw	v0,4(sp)
  403a8c:	8fa40008 	lw	a0,8(sp)
  403a90:	00621821 	addu	v1,v1,v0
  403a94:	00641823 	subu	v1,v1,a0
  403a98:	00651821 	addu	v1,v1,a1
  403a9c:	afa30000 	sw	v1,0(sp)
  403aa0:	8fa20000 	lw	v0,0(sp)
  403aa4:	8fa30004 	lw	v1,4(sp)
  403aa8:	8fa40008 	lw	a0,8(sp)
  403aac:	00431021 	addu	v0,v0,v1
  403ab0:	00441023 	subu	v0,v0,a0
  403ab4:	00451021 	addu	v0,v0,a1
  403ab8:	afa20004 	sw	v0,4(sp)
  403abc:	8fa30000 	lw	v1,0(sp)
  403ac0:	8fa20004 	lw	v0,4(sp)
  403ac4:	8fa40008 	lw	a0,8(sp)
  403ac8:	00621821 	addu	v1,v1,v0
  403acc:	00641823 	subu	v1,v1,a0
  403ad0:	00651821 	addu	v1,v1,a1
  403ad4:	afa30008 	sw	v1,8(sp)
  403ad8:	8fa20000 	lw	v0,0(sp)
  403adc:	8fa30004 	lw	v1,4(sp)
  403ae0:	8fa40008 	lw	a0,8(sp)
  403ae4:	00431021 	addu	v0,v0,v1
  403ae8:	00441023 	subu	v0,v0,a0
  403aec:	00451021 	addu	v0,v0,a1
  403af0:	afa20000 	sw	v0,0(sp)
  403af4:	8fa30000 	lw	v1,0(sp)
  403af8:	8fa20004 	lw	v0,4(sp)
  403afc:	8fa40008 	lw	a0,8(sp)
  403b00:	00621821 	addu	v1,v1,v0
  403b04:	00641823 	subu	v1,v1,a0
  403b08:	00651821 	addu	v1,v1,a1
  403b0c:	afa30004 	sw	v1,4(sp)
  403b10:	8fa20000 	lw	v0,0(sp)
  403b14:	8fa30004 	lw	v1,4(sp)
  403b18:	8fa40008 	lw	a0,8(sp)
  403b1c:	00431021 	addu	v0,v0,v1
  403b20:	00441023 	subu	v0,v0,a0
  403b24:	00451021 	addu	v0,v0,a1
  403b28:	afa20008 	sw	v0,8(sp)
  403b2c:	8fa30000 	lw	v1,0(sp)
  403b30:	8fa20004 	lw	v0,4(sp)
  403b34:	8fa40008 	lw	a0,8(sp)
  403b38:	00621821 	addu	v1,v1,v0
  403b3c:	00641823 	subu	v1,v1,a0
  403b40:	00651821 	addu	v1,v1,a1
  403b44:	24a50001 	addiu	a1,a1,1
  403b48:	28a20002 	slti	v0,a1,2
  403b4c:	1440ff8e 	bnez	v0,403988 <func_9+0x20>
  403b50:	afa30000 	sw	v1,0(sp)
  403b54:	00002821 	move	a1,zero
  403b58:	8fa20000 	lw	v0,0(sp)
  403b5c:	8fa30004 	lw	v1,4(sp)
  403b60:	8fa40008 	lw	a0,8(sp)
  403b64:	00431021 	addu	v0,v0,v1
  403b68:	00441023 	subu	v0,v0,a0
  403b6c:	00451021 	addu	v0,v0,a1
  403b70:	afa20004 	sw	v0,4(sp)
  403b74:	8fa30000 	lw	v1,0(sp)
  403b78:	8fa20004 	lw	v0,4(sp)
  403b7c:	8fa40008 	lw	a0,8(sp)
  403b80:	00621821 	addu	v1,v1,v0
  403b84:	00641823 	subu	v1,v1,a0
  403b88:	00651821 	addu	v1,v1,a1
  403b8c:	afa30000 	sw	v1,0(sp)
  403b90:	8fa20000 	lw	v0,0(sp)
  403b94:	8fa30004 	lw	v1,4(sp)
  403b98:	8fa40008 	lw	a0,8(sp)
  403b9c:	00431021 	addu	v0,v0,v1
  403ba0:	00441023 	subu	v0,v0,a0
  403ba4:	00451021 	addu	v0,v0,a1
  403ba8:	afa20008 	sw	v0,8(sp)
  403bac:	8fa30000 	lw	v1,0(sp)
  403bb0:	8fa20004 	lw	v0,4(sp)
  403bb4:	8fa40008 	lw	a0,8(sp)
  403bb8:	00621821 	addu	v1,v1,v0
  403bbc:	00641823 	subu	v1,v1,a0
  403bc0:	00651821 	addu	v1,v1,a1
  403bc4:	afa30004 	sw	v1,4(sp)
  403bc8:	8fa20000 	lw	v0,0(sp)
  403bcc:	8fa30004 	lw	v1,4(sp)
  403bd0:	8fa40008 	lw	a0,8(sp)
  403bd4:	00431021 	addu	v0,v0,v1
  403bd8:	00441023 	subu	v0,v0,a0
  403bdc:	00451021 	addu	v0,v0,a1
  403be0:	afa20004 	sw	v0,4(sp)
  403be4:	8fa30000 	lw	v1,0(sp)
  403be8:	8fa20004 	lw	v0,4(sp)
  403bec:	8fa40008 	lw	a0,8(sp)
  403bf0:	00621821 	addu	v1,v1,v0
  403bf4:	00641823 	subu	v1,v1,a0
  403bf8:	00651821 	addu	v1,v1,a1
  403bfc:	afa30000 	sw	v1,0(sp)
  403c00:	8fa20000 	lw	v0,0(sp)
  403c04:	8fa30004 	lw	v1,4(sp)
  403c08:	8fa40008 	lw	a0,8(sp)
  403c0c:	00431021 	addu	v0,v0,v1
  403c10:	00441023 	subu	v0,v0,a0
  403c14:	00451021 	addu	v0,v0,a1
  403c18:	afa20008 	sw	v0,8(sp)
  403c1c:	8fa30000 	lw	v1,0(sp)
  403c20:	8fa20004 	lw	v0,4(sp)
  403c24:	8fa40008 	lw	a0,8(sp)
  403c28:	00621821 	addu	v1,v1,v0
  403c2c:	00641823 	subu	v1,v1,a0
  403c30:	00651821 	addu	v1,v1,a1
  403c34:	afa30004 	sw	v1,4(sp)
  403c38:	8fa20000 	lw	v0,0(sp)
  403c3c:	8fa30004 	lw	v1,4(sp)
  403c40:	8fa40008 	lw	a0,8(sp)
  403c44:	00431021 	addu	v0,v0,v1
  403c48:	00441023 	subu	v0,v0,a0
  403c4c:	00451021 	addu	v0,v0,a1
  403c50:	afa20000 	sw	v0,0(sp)
  403c54:	8fa30000 	lw	v1,0(sp)
  403c58:	8fa20004 	lw	v0,4(sp)
  403c5c:	8fa40008 	lw	a0,8(sp)
  403c60:	00621821 	addu	v1,v1,v0
  403c64:	00641823 	subu	v1,v1,a0
  403c68:	00651821 	addu	v1,v1,a1
  403c6c:	afa30008 	sw	v1,8(sp)
  403c70:	8fa20000 	lw	v0,0(sp)
  403c74:	8fa30004 	lw	v1,4(sp)
  403c78:	8fa40008 	lw	a0,8(sp)
  403c7c:	00431021 	addu	v0,v0,v1
  403c80:	00441023 	subu	v0,v0,a0
  403c84:	00451021 	addu	v0,v0,a1
  403c88:	afa20004 	sw	v0,4(sp)
  403c8c:	8fa30000 	lw	v1,0(sp)
  403c90:	8fa20004 	lw	v0,4(sp)
  403c94:	8fa40008 	lw	a0,8(sp)
  403c98:	00621821 	addu	v1,v1,v0
  403c9c:	00641823 	subu	v1,v1,a0
  403ca0:	00651821 	addu	v1,v1,a1
  403ca4:	afa30000 	sw	v1,0(sp)
  403ca8:	8fa20000 	lw	v0,0(sp)
  403cac:	8fa30004 	lw	v1,4(sp)
  403cb0:	8fa40008 	lw	a0,8(sp)
  403cb4:	00431021 	addu	v0,v0,v1
  403cb8:	00441023 	subu	v0,v0,a0
  403cbc:	00451021 	addu	v0,v0,a1
  403cc0:	24a50001 	addiu	a1,a1,1
  403cc4:	28a30002 	slti	v1,a1,2
  403cc8:	1460ffa3 	bnez	v1,403b58 <func_9+0x1f0>
  403ccc:	afa20008 	sw	v0,8(sp)
  403cd0:	00002821 	move	a1,zero
  403cd4:	8fa20000 	lw	v0,0(sp)
  403cd8:	8fa30004 	lw	v1,4(sp)
  403cdc:	8fa40008 	lw	a0,8(sp)
  403ce0:	00431021 	addu	v0,v0,v1
  403ce4:	00441023 	subu	v0,v0,a0
  403ce8:	00451021 	addu	v0,v0,a1
  403cec:	afa20008 	sw	v0,8(sp)
  403cf0:	8fa30000 	lw	v1,0(sp)
  403cf4:	8fa20004 	lw	v0,4(sp)
  403cf8:	8fa40008 	lw	a0,8(sp)
  403cfc:	00621821 	addu	v1,v1,v0
  403d00:	00641823 	subu	v1,v1,a0
  403d04:	00651821 	addu	v1,v1,a1
  403d08:	afa30004 	sw	v1,4(sp)
  403d0c:	8fa20000 	lw	v0,0(sp)
  403d10:	8fa30004 	lw	v1,4(sp)
  403d14:	8fa40008 	lw	a0,8(sp)
  403d18:	00431021 	addu	v0,v0,v1
  403d1c:	00441023 	subu	v0,v0,a0
  403d20:	00451021 	addu	v0,v0,a1
  403d24:	afa20000 	sw	v0,0(sp)
  403d28:	8fa30000 	lw	v1,0(sp)
  403d2c:	8fa20004 	lw	v0,4(sp)
  403d30:	8fa40008 	lw	a0,8(sp)
  403d34:	00621821 	addu	v1,v1,v0
  403d38:	00641823 	subu	v1,v1,a0
  403d3c:	00651821 	addu	v1,v1,a1
  403d40:	afa30008 	sw	v1,8(sp)
  403d44:	8fa20000 	lw	v0,0(sp)
  403d48:	8fa30004 	lw	v1,4(sp)
  403d4c:	8fa40008 	lw	a0,8(sp)
  403d50:	00431021 	addu	v0,v0,v1
  403d54:	00441023 	subu	v0,v0,a0
  403d58:	00451021 	addu	v0,v0,a1
  403d5c:	afa20004 	sw	v0,4(sp)
  403d60:	8fa30000 	lw	v1,0(sp)
  403d64:	8fa20004 	lw	v0,4(sp)
  403d68:	8fa40008 	lw	a0,8(sp)
  403d6c:	00621821 	addu	v1,v1,v0
  403d70:	00641823 	subu	v1,v1,a0
  403d74:	00651821 	addu	v1,v1,a1
  403d78:	afa30000 	sw	v1,0(sp)
  403d7c:	8fa20000 	lw	v0,0(sp)
  403d80:	8fa30004 	lw	v1,4(sp)
  403d84:	8fa40008 	lw	a0,8(sp)
  403d88:	00431021 	addu	v0,v0,v1
  403d8c:	00441023 	subu	v0,v0,a0
  403d90:	00451021 	addu	v0,v0,a1
  403d94:	24a50001 	addiu	a1,a1,1
  403d98:	28a30002 	slti	v1,a1,2
  403d9c:	1460ffcd 	bnez	v1,403cd4 <func_9+0x36c>
  403da0:	afa20008 	sw	v0,8(sp)
  403da4:	00002821 	move	a1,zero
  403da8:	8fa20000 	lw	v0,0(sp)
  403dac:	8fa30004 	lw	v1,4(sp)
  403db0:	8fa40008 	lw	a0,8(sp)
  403db4:	00431021 	addu	v0,v0,v1
  403db8:	00441023 	subu	v0,v0,a0
  403dbc:	00451021 	addu	v0,v0,a1
  403dc0:	afa20000 	sw	v0,0(sp)
  403dc4:	8fa30000 	lw	v1,0(sp)
  403dc8:	8fa20004 	lw	v0,4(sp)
  403dcc:	8fa40008 	lw	a0,8(sp)
  403dd0:	00621821 	addu	v1,v1,v0
  403dd4:	00641823 	subu	v1,v1,a0
  403dd8:	00651821 	addu	v1,v1,a1
  403ddc:	afa30008 	sw	v1,8(sp)
  403de0:	8fa20000 	lw	v0,0(sp)
  403de4:	8fa30004 	lw	v1,4(sp)
  403de8:	8fa40008 	lw	a0,8(sp)
  403dec:	00431021 	addu	v0,v0,v1
  403df0:	00441023 	subu	v0,v0,a0
  403df4:	00451021 	addu	v0,v0,a1
  403df8:	afa20004 	sw	v0,4(sp)
  403dfc:	8fa30000 	lw	v1,0(sp)
  403e00:	8fa20004 	lw	v0,4(sp)
  403e04:	8fa40008 	lw	a0,8(sp)
  403e08:	00621821 	addu	v1,v1,v0
  403e0c:	00641823 	subu	v1,v1,a0
  403e10:	00651821 	addu	v1,v1,a1
  403e14:	afa30000 	sw	v1,0(sp)
  403e18:	8fa20000 	lw	v0,0(sp)
  403e1c:	8fa30004 	lw	v1,4(sp)
  403e20:	8fa40008 	lw	a0,8(sp)
  403e24:	00431021 	addu	v0,v0,v1
  403e28:	00441023 	subu	v0,v0,a0
  403e2c:	00451021 	addu	v0,v0,a1
  403e30:	afa20008 	sw	v0,8(sp)
  403e34:	8fa30000 	lw	v1,0(sp)
  403e38:	8fa20004 	lw	v0,4(sp)
  403e3c:	8fa40008 	lw	a0,8(sp)
  403e40:	00621821 	addu	v1,v1,v0
  403e44:	00641823 	subu	v1,v1,a0
  403e48:	00651821 	addu	v1,v1,a1
  403e4c:	afa30004 	sw	v1,4(sp)
  403e50:	8fa20000 	lw	v0,0(sp)
  403e54:	8fa30004 	lw	v1,4(sp)
  403e58:	8fa40008 	lw	a0,8(sp)
  403e5c:	00431021 	addu	v0,v0,v1
  403e60:	00441023 	subu	v0,v0,a0
  403e64:	00451021 	addu	v0,v0,a1
  403e68:	afa20000 	sw	v0,0(sp)
  403e6c:	8fa30000 	lw	v1,0(sp)
  403e70:	8fa20004 	lw	v0,4(sp)
  403e74:	8fa40008 	lw	a0,8(sp)
  403e78:	00621821 	addu	v1,v1,v0
  403e7c:	00641823 	subu	v1,v1,a0
  403e80:	00651821 	addu	v1,v1,a1
  403e84:	afa30004 	sw	v1,4(sp)
  403e88:	8fa20000 	lw	v0,0(sp)
  403e8c:	8fa30004 	lw	v1,4(sp)
  403e90:	8fa40008 	lw	a0,8(sp)
  403e94:	00431021 	addu	v0,v0,v1
  403e98:	00441023 	subu	v0,v0,a0
  403e9c:	00451021 	addu	v0,v0,a1
  403ea0:	afa20000 	sw	v0,0(sp)
  403ea4:	8fa30000 	lw	v1,0(sp)
  403ea8:	8fa20004 	lw	v0,4(sp)
  403eac:	8fa40008 	lw	a0,8(sp)
  403eb0:	00621821 	addu	v1,v1,v0
  403eb4:	00641823 	subu	v1,v1,a0
  403eb8:	00651821 	addu	v1,v1,a1
  403ebc:	afa30008 	sw	v1,8(sp)
  403ec0:	8fa20000 	lw	v0,0(sp)
  403ec4:	8fa30004 	lw	v1,4(sp)
  403ec8:	8fa40008 	lw	a0,8(sp)
  403ecc:	00431021 	addu	v0,v0,v1
  403ed0:	00441023 	subu	v0,v0,a0
  403ed4:	00451021 	addu	v0,v0,a1
  403ed8:	afa20004 	sw	v0,4(sp)
  403edc:	8fa30000 	lw	v1,0(sp)
  403ee0:	8fa20004 	lw	v0,4(sp)
  403ee4:	8fa40008 	lw	a0,8(sp)
  403ee8:	00621821 	addu	v1,v1,v0
  403eec:	00641823 	subu	v1,v1,a0
  403ef0:	00651821 	addu	v1,v1,a1
  403ef4:	afa30000 	sw	v1,0(sp)
  403ef8:	8fa20000 	lw	v0,0(sp)
  403efc:	8fa30004 	lw	v1,4(sp)
  403f00:	8fa40008 	lw	a0,8(sp)
  403f04:	00431021 	addu	v0,v0,v1
  403f08:	00441023 	subu	v0,v0,a0
  403f0c:	00451021 	addu	v0,v0,a1
  403f10:	afa20008 	sw	v0,8(sp)
  403f14:	8fa30000 	lw	v1,0(sp)
  403f18:	8fa20004 	lw	v0,4(sp)
  403f1c:	8fa40008 	lw	a0,8(sp)
  403f20:	00621821 	addu	v1,v1,v0
  403f24:	00641823 	subu	v1,v1,a0
  403f28:	00651821 	addu	v1,v1,a1
  403f2c:	afa30004 	sw	v1,4(sp)
  403f30:	8fa20000 	lw	v0,0(sp)
  403f34:	8fa30004 	lw	v1,4(sp)
  403f38:	8fa40008 	lw	a0,8(sp)
  403f3c:	00431021 	addu	v0,v0,v1
  403f40:	00441023 	subu	v0,v0,a0
  403f44:	00451021 	addu	v0,v0,a1
  403f48:	afa20000 	sw	v0,0(sp)
  403f4c:	8fa30000 	lw	v1,0(sp)
  403f50:	8fa20004 	lw	v0,4(sp)
  403f54:	8fa40008 	lw	a0,8(sp)
  403f58:	00621821 	addu	v1,v1,v0
  403f5c:	00641823 	subu	v1,v1,a0
  403f60:	00651821 	addu	v1,v1,a1
  403f64:	24a50001 	addiu	a1,a1,1
  403f68:	28a20002 	slti	v0,a1,2
  403f6c:	1440ff8e 	bnez	v0,403da8 <func_9+0x440>
  403f70:	afa30004 	sw	v1,4(sp)
  403f74:	8fa20000 	lw	v0,0(sp)
  403f78:	8fa30004 	lw	v1,4(sp)
  403f7c:	8fa40008 	lw	a0,8(sp)
  403f80:	00431021 	addu	v0,v0,v1
  403f84:	00441021 	addu	v0,v0,a0
  403f88:	03e00008 	jr	ra
  403f8c:	27bd0010 	addiu	sp,sp,16

00403f90 <func_10>:
  403f90:	27bdfff0 	addiu	sp,sp,-16
  403f94:	2402000a 	li	v0,10
  403f98:	afa20000 	sw	v0,0(sp)
  403f9c:	2403000b 	li	v1,11
  403fa0:	2402000c 	li	v0,12
  403fa4:	afa30004 	sw	v1,4(sp)
  403fa8:	00002821 	move	a1,zero
  403fac:	afa20008 	sw	v0,8(sp)
  403fb0:	8fa20000 	lw	v0,0(sp)
  403fb4:	8fa30004 	lw	v1,4(sp)
  403fb8:	8fa40008 	lw	a0,8(sp)
  403fbc:	00431021 	addu	v0,v0,v1
  403fc0:	00441023 	subu	v0,v0,a0
  403fc4:	00451021 	addu	v0,v0,a1
  403fc8:	afa20000 	sw	v0,0(sp)
  403fcc:	8fa30000 	lw	v1,0(sp)
  403fd0:	8fa20004 	lw	v0,4(sp)
  403fd4:	8fa40008 	lw	a0,8(sp)
  403fd8:	00621821 	addu	v1,v1,v0
  403fdc:	00641823 	subu	v1,v1,a0
  403fe0:	00651821 	addu	v1,v1,a1
  403fe4:	afa30004 	sw	v1,4(sp)
  403fe8:	8fa20000 	lw	v0,0(sp)
  403fec:	8fa30004 	lw	v1,4(sp)
  403ff0:	8fa40008 	lw	a0,8(sp)
  403ff4:	00431021 	addu	v0,v0,v1
  403ff8:	00441023 	subu	v0,v0,a0
  403ffc:	00451021 	addu	v0,v0,a1
  404000:	afa20008 	sw	v0,8(sp)
  404004:	8fa30000 	lw	v1,0(sp)
  404008:	8fa20004 	lw	v0,4(sp)
  40400c:	8fa40008 	lw	a0,8(sp)
  404010:	00621821 	addu	v1,v1,v0
  404014:	00641823 	subu	v1,v1,a0
  404018:	00651821 	addu	v1,v1,a1
  40401c:	afa30000 	sw	v1,0(sp)
  404020:	8fa20000 	lw	v0,0(sp)
  404024:	8fa30004 	lw	v1,4(sp)
  404028:	8fa40008 	lw	a0,8(sp)
  40402c:	00431021 	addu	v0,v0,v1
  404030:	00441023 	subu	v0,v0,a0
  404034:	00451021 	addu	v0,v0,a1
  404038:	afa20004 	sw	v0,4(sp)
  40403c:	8fa30000 	lw	v1,0(sp)
  404040:	8fa20004 	lw	v0,4(sp)
  404044:	8fa40008 	lw	a0,8(sp)
  404048:	00621821 	addu	v1,v1,v0
  40404c:	00641823 	subu	v1,v1,a0
  404050:	00651821 	addu	v1,v1,a1
  404054:	afa30008 	sw	v1,8(sp)
  404058:	8fa20000 	lw	v0,0(sp)
  40405c:	8fa30004 	lw	v1,4(sp)
  404060:	8fa40008 	lw	a0,8(sp)
  404064:	00431021 	addu	v0,v0,v1
  404068:	00441023 	subu	v0,v0,a0
  40406c:	00451021 	addu	v0,v0,a1
  404070:	afa20000 	sw	v0,0(sp)
  404074:	8fa30000 	lw	v1,0(sp)
  404078:	8fa20004 	lw	v0,4(sp)
  40407c:	8fa40008 	lw	a0,8(sp)
  404080:	00621821 	addu	v1,v1,v0
  404084:	00641823 	subu	v1,v1,a0
  404088:	00651821 	addu	v1,v1,a1
  40408c:	afa30004 	sw	v1,4(sp)
  404090:	8fa20000 	lw	v0,0(sp)
  404094:	8fa30004 	lw	v1,4(sp)
  404098:	8fa40008 	lw	a0,8(sp)
  40409c:	00431021 	addu	v0,v0,v1
  4040a0:	00441023 	subu	v0,v0,a0
  4040a4:	00451021 	addu	v0,v0,a1
  4040a8:	afa20008 	sw	v0,8(sp)
  4040ac:	8fa30000 	lw	v1,0(sp)
  4040b0:	8fa20004 	lw	v0,4(sp)
  4040b4:	8fa40008 	lw	a0,8(sp)
  4040b8:	00621821 	addu	v1,v1,v0
  4040bc:	00641823 	subu	v1,v1,a0
  4040c0:	00651821 	addu	v1,v1,a1
  4040c4:	afa30000 	sw	v1,0(sp)
  4040c8:	8fa20000 	lw	v0,0(sp)
  4040cc:	8fa30004 	lw	v1,4(sp)
  4040d0:	8fa40008 	lw	a0,8(sp)
  4040d4:	00431021 	addu	v0,v0,v1
  4040d8:	00441023 	subu	v0,v0,a0
  4040dc:	00451021 	addu	v0,v0,a1
  4040e0:	afa20004 	sw	v0,4(sp)
  4040e4:	8fa30000 	lw	v1,0(sp)
  4040e8:	8fa20004 	lw	v0,4(sp)
  4040ec:	8fa40008 	lw	a0,8(sp)
  4040f0:	00621821 	addu	v1,v1,v0
  4040f4:	00641823 	subu	v1,v1,a0
  4040f8:	00651821 	addu	v1,v1,a1
  4040fc:	afa30008 	sw	v1,8(sp)
  404100:	8fa20000 	lw	v0,0(sp)
  404104:	8fa30004 	lw	v1,4(sp)
  404108:	8fa40008 	lw	a0,8(sp)
  40410c:	00431021 	addu	v0,v0,v1
  404110:	00441023 	subu	v0,v0,a0
  404114:	00451021 	addu	v0,v0,a1
  404118:	afa20000 	sw	v0,0(sp)
  40411c:	8fa30000 	lw	v1,0(sp)
  404120:	8fa20004 	lw	v0,4(sp)
  404124:	8fa40008 	lw	a0,8(sp)
  404128:	00621821 	addu	v1,v1,v0
  40412c:	00641823 	subu	v1,v1,a0
  404130:	00651821 	addu	v1,v1,a1
  404134:	afa30004 	sw	v1,4(sp)
  404138:	8fa20000 	lw	v0,0(sp)
  40413c:	8fa30004 	lw	v1,4(sp)
  404140:	8fa40008 	lw	a0,8(sp)
  404144:	00431021 	addu	v0,v0,v1
  404148:	00441023 	subu	v0,v0,a0
  40414c:	00451021 	addu	v0,v0,a1
  404150:	afa20008 	sw	v0,8(sp)
  404154:	8fa30000 	lw	v1,0(sp)
  404158:	8fa20004 	lw	v0,4(sp)
  40415c:	8fa40008 	lw	a0,8(sp)
  404160:	00621821 	addu	v1,v1,v0
  404164:	00641823 	subu	v1,v1,a0
  404168:	00651821 	addu	v1,v1,a1
  40416c:	24a50001 	addiu	a1,a1,1
  404170:	28a20002 	slti	v0,a1,2
  404174:	1440ff8e 	bnez	v0,403fb0 <func_10+0x20>
  404178:	afa30000 	sw	v1,0(sp)
  40417c:	00002821 	move	a1,zero
  404180:	8fa20000 	lw	v0,0(sp)
  404184:	8fa30004 	lw	v1,4(sp)
  404188:	8fa40008 	lw	a0,8(sp)
  40418c:	00431021 	addu	v0,v0,v1
  404190:	00441023 	subu	v0,v0,a0
  404194:	00451021 	addu	v0,v0,a1
  404198:	afa20004 	sw	v0,4(sp)
  40419c:	8fa30000 	lw	v1,0(sp)
  4041a0:	8fa20004 	lw	v0,4(sp)
  4041a4:	8fa40008 	lw	a0,8(sp)
  4041a8:	00621821 	addu	v1,v1,v0
  4041ac:	00641823 	subu	v1,v1,a0
  4041b0:	00651821 	addu	v1,v1,a1
  4041b4:	afa30000 	sw	v1,0(sp)
  4041b8:	8fa20000 	lw	v0,0(sp)
  4041bc:	8fa30004 	lw	v1,4(sp)
  4041c0:	8fa40008 	lw	a0,8(sp)
  4041c4:	00431021 	addu	v0,v0,v1
  4041c8:	00441023 	subu	v0,v0,a0
  4041cc:	00451021 	addu	v0,v0,a1
  4041d0:	afa20008 	sw	v0,8(sp)
  4041d4:	8fa30000 	lw	v1,0(sp)
  4041d8:	8fa20004 	lw	v0,4(sp)
  4041dc:	8fa40008 	lw	a0,8(sp)
  4041e0:	00621821 	addu	v1,v1,v0
  4041e4:	00641823 	subu	v1,v1,a0
  4041e8:	00651821 	addu	v1,v1,a1
  4041ec:	afa30004 	sw	v1,4(sp)
  4041f0:	8fa20000 	lw	v0,0(sp)
  4041f4:	8fa30004 	lw	v1,4(sp)
  4041f8:	8fa40008 	lw	a0,8(sp)
  4041fc:	00431021 	addu	v0,v0,v1
  404200:	00441023 	subu	v0,v0,a0
  404204:	00451021 	addu	v0,v0,a1
  404208:	afa20004 	sw	v0,4(sp)
  40420c:	8fa30000 	lw	v1,0(sp)
  404210:	8fa20004 	lw	v0,4(sp)
  404214:	8fa40008 	lw	a0,8(sp)
  404218:	00621821 	addu	v1,v1,v0
  40421c:	00641823 	subu	v1,v1,a0
  404220:	00651821 	addu	v1,v1,a1
  404224:	afa30000 	sw	v1,0(sp)
  404228:	8fa20000 	lw	v0,0(sp)
  40422c:	8fa30004 	lw	v1,4(sp)
  404230:	8fa40008 	lw	a0,8(sp)
  404234:	00431021 	addu	v0,v0,v1
  404238:	00441023 	subu	v0,v0,a0
  40423c:	00451021 	addu	v0,v0,a1
  404240:	afa20008 	sw	v0,8(sp)
  404244:	8fa30000 	lw	v1,0(sp)
  404248:	8fa20004 	lw	v0,4(sp)
  40424c:	8fa40008 	lw	a0,8(sp)
  404250:	00621821 	addu	v1,v1,v0
  404254:	00641823 	subu	v1,v1,a0
  404258:	00651821 	addu	v1,v1,a1
  40425c:	afa30004 	sw	v1,4(sp)
  404260:	8fa20000 	lw	v0,0(sp)
  404264:	8fa30004 	lw	v1,4(sp)
  404268:	8fa40008 	lw	a0,8(sp)
  40426c:	00431021 	addu	v0,v0,v1
  404270:	00441023 	subu	v0,v0,a0
  404274:	00451021 	addu	v0,v0,a1
  404278:	afa20000 	sw	v0,0(sp)
  40427c:	8fa30000 	lw	v1,0(sp)
  404280:	8fa20004 	lw	v0,4(sp)
  404284:	8fa40008 	lw	a0,8(sp)
  404288:	00621821 	addu	v1,v1,v0
  40428c:	00641823 	subu	v1,v1,a0
  404290:	00651821 	addu	v1,v1,a1
  404294:	afa30008 	sw	v1,8(sp)
  404298:	8fa20000 	lw	v0,0(sp)
  40429c:	8fa30004 	lw	v1,4(sp)
  4042a0:	8fa40008 	lw	a0,8(sp)
  4042a4:	00431021 	addu	v0,v0,v1
  4042a8:	00441023 	subu	v0,v0,a0
  4042ac:	00451021 	addu	v0,v0,a1
  4042b0:	afa20004 	sw	v0,4(sp)
  4042b4:	8fa30000 	lw	v1,0(sp)
  4042b8:	8fa20004 	lw	v0,4(sp)
  4042bc:	8fa40008 	lw	a0,8(sp)
  4042c0:	00621821 	addu	v1,v1,v0
  4042c4:	00641823 	subu	v1,v1,a0
  4042c8:	00651821 	addu	v1,v1,a1
  4042cc:	afa30000 	sw	v1,0(sp)
  4042d0:	8fa20000 	lw	v0,0(sp)
  4042d4:	8fa30004 	lw	v1,4(sp)
  4042d8:	8fa40008 	lw	a0,8(sp)
  4042dc:	00431021 	addu	v0,v0,v1
  4042e0:	00441023 	subu	v0,v0,a0
  4042e4:	00451021 	addu	v0,v0,a1
  4042e8:	24a50001 	addiu	a1,a1,1
  4042ec:	28a30002 	slti	v1,a1,2
  4042f0:	1460ffa3 	bnez	v1,404180 <func_10+0x1f0>
  4042f4:	afa20008 	sw	v0,8(sp)
  4042f8:	00002821 	move	a1,zero
  4042fc:	8fa20000 	lw	v0,0(sp)
  404300:	8fa30004 	lw	v1,4(sp)
  404304:	8fa40008 	lw	a0,8(sp)
  404308:	00431021 	addu	v0,v0,v1
  40430c:	00441023 	subu	v0,v0,a0
  404310:	00451021 	addu	v0,v0,a1
  404314:	afa20008 	sw	v0,8(sp)
  404318:	8fa30000 	lw	v1,0(sp)
  40431c:	8fa20004 	lw	v0,4(sp)
  404320:	8fa40008 	lw	a0,8(sp)
  404324:	00621821 	addu	v1,v1,v0
  404328:	00641823 	subu	v1,v1,a0
  40432c:	00651821 	addu	v1,v1,a1
  404330:	afa30004 	sw	v1,4(sp)
  404334:	8fa20000 	lw	v0,0(sp)
  404338:	8fa30004 	lw	v1,4(sp)
  40433c:	8fa40008 	lw	a0,8(sp)
  404340:	00431021 	addu	v0,v0,v1
  404344:	00441023 	subu	v0,v0,a0
  404348:	00451021 	addu	v0,v0,a1
  40434c:	afa20000 	sw	v0,0(sp)
  404350:	8fa30000 	lw	v1,0(sp)
  404354:	8fa20004 	lw	v0,4(sp)
  404358:	8fa40008 	lw	a0,8(sp)
  40435c:	00621821 	addu	v1,v1,v0
  404360:	00641823 	subu	v1,v1,a0
  404364:	00651821 	addu	v1,v1,a1
  404368:	afa30008 	sw	v1,8(sp)
  40436c:	8fa20000 	lw	v0,0(sp)
  404370:	8fa30004 	lw	v1,4(sp)
  404374:	8fa40008 	lw	a0,8(sp)
  404378:	00431021 	addu	v0,v0,v1
  40437c:	00441023 	subu	v0,v0,a0
  404380:	00451021 	addu	v0,v0,a1
  404384:	afa20004 	sw	v0,4(sp)
  404388:	8fa30000 	lw	v1,0(sp)
  40438c:	8fa20004 	lw	v0,4(sp)
  404390:	8fa40008 	lw	a0,8(sp)
  404394:	00621821 	addu	v1,v1,v0
  404398:	00641823 	subu	v1,v1,a0
  40439c:	00651821 	addu	v1,v1,a1
  4043a0:	afa30000 	sw	v1,0(sp)
  4043a4:	8fa20000 	lw	v0,0(sp)
  4043a8:	8fa30004 	lw	v1,4(sp)
  4043ac:	8fa40008 	lw	a0,8(sp)
  4043b0:	00431021 	addu	v0,v0,v1
  4043b4:	00441023 	subu	v0,v0,a0
  4043b8:	00451021 	addu	v0,v0,a1
  4043bc:	24a50001 	addiu	a1,a1,1
  4043c0:	28a30002 	slti	v1,a1,2
  4043c4:	1460ffcd 	bnez	v1,4042fc <func_10+0x36c>
  4043c8:	afa20008 	sw	v0,8(sp)
  4043cc:	00002821 	move	a1,zero
  4043d0:	8fa20000 	lw	v0,0(sp)
  4043d4:	8fa30004 	lw	v1,4(sp)
  4043d8:	8fa40008 	lw	a0,8(sp)
  4043dc:	00431021 	addu	v0,v0,v1
  4043e0:	00441023 	subu	v0,v0,a0
  4043e4:	00451021 	addu	v0,v0,a1
  4043e8:	afa20000 	sw	v0,0(sp)
  4043ec:	8fa30000 	lw	v1,0(sp)
  4043f0:	8fa20004 	lw	v0,4(sp)
  4043f4:	8fa40008 	lw	a0,8(sp)
  4043f8:	00621821 	addu	v1,v1,v0
  4043fc:	00641823 	subu	v1,v1,a0
  404400:	00651821 	addu	v1,v1,a1
  404404:	afa30008 	sw	v1,8(sp)
  404408:	8fa20000 	lw	v0,0(sp)
  40440c:	8fa30004 	lw	v1,4(sp)
  404410:	8fa40008 	lw	a0,8(sp)
  404414:	00431021 	addu	v0,v0,v1
  404418:	00441023 	subu	v0,v0,a0
  40441c:	00451021 	addu	v0,v0,a1
  404420:	afa20004 	sw	v0,4(sp)
  404424:	8fa30000 	lw	v1,0(sp)
  404428:	8fa20004 	lw	v0,4(sp)
  40442c:	8fa40008 	lw	a0,8(sp)
  404430:	00621821 	addu	v1,v1,v0
  404434:	00641823 	subu	v1,v1,a0
  404438:	00651821 	addu	v1,v1,a1
  40443c:	afa30000 	sw	v1,0(sp)
  404440:	8fa20000 	lw	v0,0(sp)
  404444:	8fa30004 	lw	v1,4(sp)
  404448:	8fa40008 	lw	a0,8(sp)
  40444c:	00431021 	addu	v0,v0,v1
  404450:	00441023 	subu	v0,v0,a0
  404454:	00451021 	addu	v0,v0,a1
  404458:	afa20008 	sw	v0,8(sp)
  40445c:	8fa30000 	lw	v1,0(sp)
  404460:	8fa20004 	lw	v0,4(sp)
  404464:	8fa40008 	lw	a0,8(sp)
  404468:	00621821 	addu	v1,v1,v0
  40446c:	00641823 	subu	v1,v1,a0
  404470:	00651821 	addu	v1,v1,a1
  404474:	afa30004 	sw	v1,4(sp)
  404478:	8fa20000 	lw	v0,0(sp)
  40447c:	8fa30004 	lw	v1,4(sp)
  404480:	8fa40008 	lw	a0,8(sp)
  404484:	00431021 	addu	v0,v0,v1
  404488:	00441023 	subu	v0,v0,a0
  40448c:	00451021 	addu	v0,v0,a1
  404490:	afa20000 	sw	v0,0(sp)
  404494:	8fa30000 	lw	v1,0(sp)
  404498:	8fa20004 	lw	v0,4(sp)
  40449c:	8fa40008 	lw	a0,8(sp)
  4044a0:	00621821 	addu	v1,v1,v0
  4044a4:	00641823 	subu	v1,v1,a0
  4044a8:	00651821 	addu	v1,v1,a1
  4044ac:	afa30004 	sw	v1,4(sp)
  4044b0:	8fa20000 	lw	v0,0(sp)
  4044b4:	8fa30004 	lw	v1,4(sp)
  4044b8:	8fa40008 	lw	a0,8(sp)
  4044bc:	00431021 	addu	v0,v0,v1
  4044c0:	00441023 	subu	v0,v0,a0
  4044c4:	00451021 	addu	v0,v0,a1
  4044c8:	afa20000 	sw	v0,0(sp)
  4044cc:	8fa30000 	lw	v1,0(sp)
  4044d0:	8fa20004 	lw	v0,4(sp)
  4044d4:	8fa40008 	lw	a0,8(sp)
  4044d8:	00621821 	addu	v1,v1,v0
  4044dc:	00641823 	subu	v1,v1,a0
  4044e0:	00651821 	addu	v1,v1,a1
  4044e4:	afa30008 	sw	v1,8(sp)
  4044e8:	8fa20000 	lw	v0,0(sp)
  4044ec:	8fa30004 	lw	v1,4(sp)
  4044f0:	8fa40008 	lw	a0,8(sp)
  4044f4:	00431021 	addu	v0,v0,v1
  4044f8:	00441023 	subu	v0,v0,a0
  4044fc:	00451021 	addu	v0,v0,a1
  404500:	afa20004 	sw	v0,4(sp)
  404504:	8fa30000 	lw	v1,0(sp)
  404508:	8fa20004 	lw	v0,4(sp)
  40450c:	8fa40008 	lw	a0,8(sp)
  404510:	00621821 	addu	v1,v1,v0
  404514:	00641823 	subu	v1,v1,a0
  404518:	00651821 	addu	v1,v1,a1
  40451c:	afa30000 	sw	v1,0(sp)
  404520:	8fa20000 	lw	v0,0(sp)
  404524:	8fa30004 	lw	v1,4(sp)
  404528:	8fa40008 	lw	a0,8(sp)
  40452c:	00431021 	addu	v0,v0,v1
  404530:	00441023 	subu	v0,v0,a0
  404534:	00451021 	addu	v0,v0,a1
  404538:	afa20008 	sw	v0,8(sp)
  40453c:	8fa30000 	lw	v1,0(sp)
  404540:	8fa20004 	lw	v0,4(sp)
  404544:	8fa40008 	lw	a0,8(sp)
  404548:	00621821 	addu	v1,v1,v0
  40454c:	00641823 	subu	v1,v1,a0
  404550:	00651821 	addu	v1,v1,a1
  404554:	afa30004 	sw	v1,4(sp)
  404558:	8fa20000 	lw	v0,0(sp)
  40455c:	8fa30004 	lw	v1,4(sp)
  404560:	8fa40008 	lw	a0,8(sp)
  404564:	00431021 	addu	v0,v0,v1
  404568:	00441023 	subu	v0,v0,a0
  40456c:	00451021 	addu	v0,v0,a1
  404570:	afa20000 	sw	v0,0(sp)
  404574:	8fa30000 	lw	v1,0(sp)
  404578:	8fa20004 	lw	v0,4(sp)
  40457c:	8fa40008 	lw	a0,8(sp)
  404580:	00621821 	addu	v1,v1,v0
  404584:	00641823 	subu	v1,v1,a0
  404588:	00651821 	addu	v1,v1,a1
  40458c:	24a50001 	addiu	a1,a1,1
  404590:	28a20002 	slti	v0,a1,2
  404594:	1440ff8e 	bnez	v0,4043d0 <func_10+0x440>
  404598:	afa30004 	sw	v1,4(sp)
  40459c:	8fa20000 	lw	v0,0(sp)
  4045a0:	8fa30004 	lw	v1,4(sp)
  4045a4:	8fa40008 	lw	a0,8(sp)
  4045a8:	00431021 	addu	v0,v0,v1
  4045ac:	00441021 	addu	v0,v0,a0
  4045b0:	03e00008 	jr	ra
  4045b4:	27bd0010 	addiu	sp,sp,16

004045b8 <func_11>:
  4045b8:	27bdfff0 	addiu	sp,sp,-16
  4045bc:	2402000a 	li	v0,10
  4045c0:	afa20000 	sw	v0,0(sp)
  4045c4:	2403000b 	li	v1,11
  4045c8:	2402000c 	li	v0,12
  4045cc:	afa30004 	sw	v1,4(sp)
  4045d0:	00002821 	move	a1,zero
  4045d4:	afa20008 	sw	v0,8(sp)
  4045d8:	8fa20000 	lw	v0,0(sp)
  4045dc:	8fa30004 	lw	v1,4(sp)
  4045e0:	8fa40008 	lw	a0,8(sp)
  4045e4:	00431021 	addu	v0,v0,v1
  4045e8:	00441023 	subu	v0,v0,a0
  4045ec:	00451021 	addu	v0,v0,a1
  4045f0:	afa20000 	sw	v0,0(sp)
  4045f4:	8fa30000 	lw	v1,0(sp)
  4045f8:	8fa20004 	lw	v0,4(sp)
  4045fc:	8fa40008 	lw	a0,8(sp)
  404600:	00621821 	addu	v1,v1,v0
  404604:	00641823 	subu	v1,v1,a0
  404608:	00651821 	addu	v1,v1,a1
  40460c:	afa30004 	sw	v1,4(sp)
  404610:	8fa20000 	lw	v0,0(sp)
  404614:	8fa30004 	lw	v1,4(sp)
  404618:	8fa40008 	lw	a0,8(sp)
  40461c:	00431021 	addu	v0,v0,v1
  404620:	00441023 	subu	v0,v0,a0
  404624:	00451021 	addu	v0,v0,a1
  404628:	afa20008 	sw	v0,8(sp)
  40462c:	8fa30000 	lw	v1,0(sp)
  404630:	8fa20004 	lw	v0,4(sp)
  404634:	8fa40008 	lw	a0,8(sp)
  404638:	00621821 	addu	v1,v1,v0
  40463c:	00641823 	subu	v1,v1,a0
  404640:	00651821 	addu	v1,v1,a1
  404644:	afa30000 	sw	v1,0(sp)
  404648:	8fa20000 	lw	v0,0(sp)
  40464c:	8fa30004 	lw	v1,4(sp)
  404650:	8fa40008 	lw	a0,8(sp)
  404654:	00431021 	addu	v0,v0,v1
  404658:	00441023 	subu	v0,v0,a0
  40465c:	00451021 	addu	v0,v0,a1
  404660:	afa20004 	sw	v0,4(sp)
  404664:	8fa30000 	lw	v1,0(sp)
  404668:	8fa20004 	lw	v0,4(sp)
  40466c:	8fa40008 	lw	a0,8(sp)
  404670:	00621821 	addu	v1,v1,v0
  404674:	00641823 	subu	v1,v1,a0
  404678:	00651821 	addu	v1,v1,a1
  40467c:	afa30008 	sw	v1,8(sp)
  404680:	8fa20000 	lw	v0,0(sp)
  404684:	8fa30004 	lw	v1,4(sp)
  404688:	8fa40008 	lw	a0,8(sp)
  40468c:	00431021 	addu	v0,v0,v1
  404690:	00441023 	subu	v0,v0,a0
  404694:	00451021 	addu	v0,v0,a1
  404698:	afa20000 	sw	v0,0(sp)
  40469c:	8fa30000 	lw	v1,0(sp)
  4046a0:	8fa20004 	lw	v0,4(sp)
  4046a4:	8fa40008 	lw	a0,8(sp)
  4046a8:	00621821 	addu	v1,v1,v0
  4046ac:	00641823 	subu	v1,v1,a0
  4046b0:	00651821 	addu	v1,v1,a1
  4046b4:	afa30004 	sw	v1,4(sp)
  4046b8:	8fa20000 	lw	v0,0(sp)
  4046bc:	8fa30004 	lw	v1,4(sp)
  4046c0:	8fa40008 	lw	a0,8(sp)
  4046c4:	00431021 	addu	v0,v0,v1
  4046c8:	00441023 	subu	v0,v0,a0
  4046cc:	00451021 	addu	v0,v0,a1
  4046d0:	afa20008 	sw	v0,8(sp)
  4046d4:	8fa30000 	lw	v1,0(sp)
  4046d8:	8fa20004 	lw	v0,4(sp)
  4046dc:	8fa40008 	lw	a0,8(sp)
  4046e0:	00621821 	addu	v1,v1,v0
  4046e4:	00641823 	subu	v1,v1,a0
  4046e8:	00651821 	addu	v1,v1,a1
  4046ec:	afa30000 	sw	v1,0(sp)
  4046f0:	8fa20000 	lw	v0,0(sp)
  4046f4:	8fa30004 	lw	v1,4(sp)
  4046f8:	8fa40008 	lw	a0,8(sp)
  4046fc:	00431021 	addu	v0,v0,v1
  404700:	00441023 	subu	v0,v0,a0
  404704:	00451021 	addu	v0,v0,a1
  404708:	afa20004 	sw	v0,4(sp)
  40470c:	8fa30000 	lw	v1,0(sp)
  404710:	8fa20004 	lw	v0,4(sp)
  404714:	8fa40008 	lw	a0,8(sp)
  404718:	00621821 	addu	v1,v1,v0
  40471c:	00641823 	subu	v1,v1,a0
  404720:	00651821 	addu	v1,v1,a1
  404724:	afa30008 	sw	v1,8(sp)
  404728:	8fa20000 	lw	v0,0(sp)
  40472c:	8fa30004 	lw	v1,4(sp)
  404730:	8fa40008 	lw	a0,8(sp)
  404734:	00431021 	addu	v0,v0,v1
  404738:	00441023 	subu	v0,v0,a0
  40473c:	00451021 	addu	v0,v0,a1
  404740:	afa20000 	sw	v0,0(sp)
  404744:	8fa30000 	lw	v1,0(sp)
  404748:	8fa20004 	lw	v0,4(sp)
  40474c:	8fa40008 	lw	a0,8(sp)
  404750:	00621821 	addu	v1,v1,v0
  404754:	00641823 	subu	v1,v1,a0
  404758:	00651821 	addu	v1,v1,a1
  40475c:	afa30004 	sw	v1,4(sp)
  404760:	8fa20000 	lw	v0,0(sp)
  404764:	8fa30004 	lw	v1,4(sp)
  404768:	8fa40008 	lw	a0,8(sp)
  40476c:	00431021 	addu	v0,v0,v1
  404770:	00441023 	subu	v0,v0,a0
  404774:	00451021 	addu	v0,v0,a1
  404778:	afa20008 	sw	v0,8(sp)
  40477c:	8fa30000 	lw	v1,0(sp)
  404780:	8fa20004 	lw	v0,4(sp)
  404784:	8fa40008 	lw	a0,8(sp)
  404788:	00621821 	addu	v1,v1,v0
  40478c:	00641823 	subu	v1,v1,a0
  404790:	00651821 	addu	v1,v1,a1
  404794:	24a50001 	addiu	a1,a1,1
  404798:	28a20002 	slti	v0,a1,2
  40479c:	1440ff8e 	bnez	v0,4045d8 <func_11+0x20>
  4047a0:	afa30000 	sw	v1,0(sp)
  4047a4:	00002821 	move	a1,zero
  4047a8:	8fa20000 	lw	v0,0(sp)
  4047ac:	8fa30004 	lw	v1,4(sp)
  4047b0:	8fa40008 	lw	a0,8(sp)
  4047b4:	00431021 	addu	v0,v0,v1
  4047b8:	00441023 	subu	v0,v0,a0
  4047bc:	00451021 	addu	v0,v0,a1
  4047c0:	afa20004 	sw	v0,4(sp)
  4047c4:	8fa30000 	lw	v1,0(sp)
  4047c8:	8fa20004 	lw	v0,4(sp)
  4047cc:	8fa40008 	lw	a0,8(sp)
  4047d0:	00621821 	addu	v1,v1,v0
  4047d4:	00641823 	subu	v1,v1,a0
  4047d8:	00651821 	addu	v1,v1,a1
  4047dc:	afa30000 	sw	v1,0(sp)
  4047e0:	8fa20000 	lw	v0,0(sp)
  4047e4:	8fa30004 	lw	v1,4(sp)
  4047e8:	8fa40008 	lw	a0,8(sp)
  4047ec:	00431021 	addu	v0,v0,v1
  4047f0:	00441023 	subu	v0,v0,a0
  4047f4:	00451021 	addu	v0,v0,a1
  4047f8:	afa20008 	sw	v0,8(sp)
  4047fc:	8fa30000 	lw	v1,0(sp)
  404800:	8fa20004 	lw	v0,4(sp)
  404804:	8fa40008 	lw	a0,8(sp)
  404808:	00621821 	addu	v1,v1,v0
  40480c:	00641823 	subu	v1,v1,a0
  404810:	00651821 	addu	v1,v1,a1
  404814:	afa30004 	sw	v1,4(sp)
  404818:	8fa20000 	lw	v0,0(sp)
  40481c:	8fa30004 	lw	v1,4(sp)
  404820:	8fa40008 	lw	a0,8(sp)
  404824:	00431021 	addu	v0,v0,v1
  404828:	00441023 	subu	v0,v0,a0
  40482c:	00451021 	addu	v0,v0,a1
  404830:	afa20004 	sw	v0,4(sp)
  404834:	8fa30000 	lw	v1,0(sp)
  404838:	8fa20004 	lw	v0,4(sp)
  40483c:	8fa40008 	lw	a0,8(sp)
  404840:	00621821 	addu	v1,v1,v0
  404844:	00641823 	subu	v1,v1,a0
  404848:	00651821 	addu	v1,v1,a1
  40484c:	afa30000 	sw	v1,0(sp)
  404850:	8fa20000 	lw	v0,0(sp)
  404854:	8fa30004 	lw	v1,4(sp)
  404858:	8fa40008 	lw	a0,8(sp)
  40485c:	00431021 	addu	v0,v0,v1
  404860:	00441023 	subu	v0,v0,a0
  404864:	00451021 	addu	v0,v0,a1
  404868:	afa20008 	sw	v0,8(sp)
  40486c:	8fa30000 	lw	v1,0(sp)
  404870:	8fa20004 	lw	v0,4(sp)
  404874:	8fa40008 	lw	a0,8(sp)
  404878:	00621821 	addu	v1,v1,v0
  40487c:	00641823 	subu	v1,v1,a0
  404880:	00651821 	addu	v1,v1,a1
  404884:	afa30004 	sw	v1,4(sp)
  404888:	8fa20000 	lw	v0,0(sp)
  40488c:	8fa30004 	lw	v1,4(sp)
  404890:	8fa40008 	lw	a0,8(sp)
  404894:	00431021 	addu	v0,v0,v1
  404898:	00441023 	subu	v0,v0,a0
  40489c:	00451021 	addu	v0,v0,a1
  4048a0:	afa20000 	sw	v0,0(sp)
  4048a4:	8fa30000 	lw	v1,0(sp)
  4048a8:	8fa20004 	lw	v0,4(sp)
  4048ac:	8fa40008 	lw	a0,8(sp)
  4048b0:	00621821 	addu	v1,v1,v0
  4048b4:	00641823 	subu	v1,v1,a0
  4048b8:	00651821 	addu	v1,v1,a1
  4048bc:	afa30008 	sw	v1,8(sp)
  4048c0:	8fa20000 	lw	v0,0(sp)
  4048c4:	8fa30004 	lw	v1,4(sp)
  4048c8:	8fa40008 	lw	a0,8(sp)
  4048cc:	00431021 	addu	v0,v0,v1
  4048d0:	00441023 	subu	v0,v0,a0
  4048d4:	00451021 	addu	v0,v0,a1
  4048d8:	afa20004 	sw	v0,4(sp)
  4048dc:	8fa30000 	lw	v1,0(sp)
  4048e0:	8fa20004 	lw	v0,4(sp)
  4048e4:	8fa40008 	lw	a0,8(sp)
  4048e8:	00621821 	addu	v1,v1,v0
  4048ec:	00641823 	subu	v1,v1,a0
  4048f0:	00651821 	addu	v1,v1,a1
  4048f4:	afa30000 	sw	v1,0(sp)
  4048f8:	8fa20000 	lw	v0,0(sp)
  4048fc:	8fa30004 	lw	v1,4(sp)
  404900:	8fa40008 	lw	a0,8(sp)
  404904:	00431021 	addu	v0,v0,v1
  404908:	00441023 	subu	v0,v0,a0
  40490c:	00451021 	addu	v0,v0,a1
  404910:	24a50001 	addiu	a1,a1,1
  404914:	28a30002 	slti	v1,a1,2
  404918:	1460ffa3 	bnez	v1,4047a8 <func_11+0x1f0>
  40491c:	afa20008 	sw	v0,8(sp)
  404920:	00002821 	move	a1,zero
  404924:	8fa20000 	lw	v0,0(sp)
  404928:	8fa30004 	lw	v1,4(sp)
  40492c:	8fa40008 	lw	a0,8(sp)
  404930:	00431021 	addu	v0,v0,v1
  404934:	00441023 	subu	v0,v0,a0
  404938:	00451021 	addu	v0,v0,a1
  40493c:	afa20008 	sw	v0,8(sp)
  404940:	8fa30000 	lw	v1,0(sp)
  404944:	8fa20004 	lw	v0,4(sp)
  404948:	8fa40008 	lw	a0,8(sp)
  40494c:	00621821 	addu	v1,v1,v0
  404950:	00641823 	subu	v1,v1,a0
  404954:	00651821 	addu	v1,v1,a1
  404958:	afa30004 	sw	v1,4(sp)
  40495c:	8fa20000 	lw	v0,0(sp)
  404960:	8fa30004 	lw	v1,4(sp)
  404964:	8fa40008 	lw	a0,8(sp)
  404968:	00431021 	addu	v0,v0,v1
  40496c:	00441023 	subu	v0,v0,a0
  404970:	00451021 	addu	v0,v0,a1
  404974:	afa20000 	sw	v0,0(sp)
  404978:	8fa30000 	lw	v1,0(sp)
  40497c:	8fa20004 	lw	v0,4(sp)
  404980:	8fa40008 	lw	a0,8(sp)
  404984:	00621821 	addu	v1,v1,v0
  404988:	00641823 	subu	v1,v1,a0
  40498c:	00651821 	addu	v1,v1,a1
  404990:	afa30008 	sw	v1,8(sp)
  404994:	8fa20000 	lw	v0,0(sp)
  404998:	8fa30004 	lw	v1,4(sp)
  40499c:	8fa40008 	lw	a0,8(sp)
  4049a0:	00431021 	addu	v0,v0,v1
  4049a4:	00441023 	subu	v0,v0,a0
  4049a8:	00451021 	addu	v0,v0,a1
  4049ac:	afa20004 	sw	v0,4(sp)
  4049b0:	8fa30000 	lw	v1,0(sp)
  4049b4:	8fa20004 	lw	v0,4(sp)
  4049b8:	8fa40008 	lw	a0,8(sp)
  4049bc:	00621821 	addu	v1,v1,v0
  4049c0:	00641823 	subu	v1,v1,a0
  4049c4:	00651821 	addu	v1,v1,a1
  4049c8:	afa30000 	sw	v1,0(sp)
  4049cc:	8fa20000 	lw	v0,0(sp)
  4049d0:	8fa30004 	lw	v1,4(sp)
  4049d4:	8fa40008 	lw	a0,8(sp)
  4049d8:	00431021 	addu	v0,v0,v1
  4049dc:	00441023 	subu	v0,v0,a0
  4049e0:	00451021 	addu	v0,v0,a1
  4049e4:	24a50001 	addiu	a1,a1,1
  4049e8:	28a30002 	slti	v1,a1,2
  4049ec:	1460ffcd 	bnez	v1,404924 <func_11+0x36c>
  4049f0:	afa20008 	sw	v0,8(sp)
  4049f4:	00002821 	move	a1,zero
  4049f8:	8fa20000 	lw	v0,0(sp)
  4049fc:	8fa30004 	lw	v1,4(sp)
  404a00:	8fa40008 	lw	a0,8(sp)
  404a04:	00431021 	addu	v0,v0,v1
  404a08:	00441023 	subu	v0,v0,a0
  404a0c:	00451021 	addu	v0,v0,a1
  404a10:	afa20000 	sw	v0,0(sp)
  404a14:	8fa30000 	lw	v1,0(sp)
  404a18:	8fa20004 	lw	v0,4(sp)
  404a1c:	8fa40008 	lw	a0,8(sp)
  404a20:	00621821 	addu	v1,v1,v0
  404a24:	00641823 	subu	v1,v1,a0
  404a28:	00651821 	addu	v1,v1,a1
  404a2c:	afa30008 	sw	v1,8(sp)
  404a30:	8fa20000 	lw	v0,0(sp)
  404a34:	8fa30004 	lw	v1,4(sp)
  404a38:	8fa40008 	lw	a0,8(sp)
  404a3c:	00431021 	addu	v0,v0,v1
  404a40:	00441023 	subu	v0,v0,a0
  404a44:	00451021 	addu	v0,v0,a1
  404a48:	afa20004 	sw	v0,4(sp)
  404a4c:	8fa30000 	lw	v1,0(sp)
  404a50:	8fa20004 	lw	v0,4(sp)
  404a54:	8fa40008 	lw	a0,8(sp)
  404a58:	00621821 	addu	v1,v1,v0
  404a5c:	00641823 	subu	v1,v1,a0
  404a60:	00651821 	addu	v1,v1,a1
  404a64:	afa30000 	sw	v1,0(sp)
  404a68:	8fa20000 	lw	v0,0(sp)
  404a6c:	8fa30004 	lw	v1,4(sp)
  404a70:	8fa40008 	lw	a0,8(sp)
  404a74:	00431021 	addu	v0,v0,v1
  404a78:	00441023 	subu	v0,v0,a0
  404a7c:	00451021 	addu	v0,v0,a1
  404a80:	afa20008 	sw	v0,8(sp)
  404a84:	8fa30000 	lw	v1,0(sp)
  404a88:	8fa20004 	lw	v0,4(sp)
  404a8c:	8fa40008 	lw	a0,8(sp)
  404a90:	00621821 	addu	v1,v1,v0
  404a94:	00641823 	subu	v1,v1,a0
  404a98:	00651821 	addu	v1,v1,a1
  404a9c:	afa30004 	sw	v1,4(sp)
  404aa0:	8fa20000 	lw	v0,0(sp)
  404aa4:	8fa30004 	lw	v1,4(sp)
  404aa8:	8fa40008 	lw	a0,8(sp)
  404aac:	00431021 	addu	v0,v0,v1
  404ab0:	00441023 	subu	v0,v0,a0
  404ab4:	00451021 	addu	v0,v0,a1
  404ab8:	afa20000 	sw	v0,0(sp)
  404abc:	8fa30000 	lw	v1,0(sp)
  404ac0:	8fa20004 	lw	v0,4(sp)
  404ac4:	8fa40008 	lw	a0,8(sp)
  404ac8:	00621821 	addu	v1,v1,v0
  404acc:	00641823 	subu	v1,v1,a0
  404ad0:	00651821 	addu	v1,v1,a1
  404ad4:	afa30004 	sw	v1,4(sp)
  404ad8:	8fa20000 	lw	v0,0(sp)
  404adc:	8fa30004 	lw	v1,4(sp)
  404ae0:	8fa40008 	lw	a0,8(sp)
  404ae4:	00431021 	addu	v0,v0,v1
  404ae8:	00441023 	subu	v0,v0,a0
  404aec:	00451021 	addu	v0,v0,a1
  404af0:	afa20000 	sw	v0,0(sp)
  404af4:	8fa30000 	lw	v1,0(sp)
  404af8:	8fa20004 	lw	v0,4(sp)
  404afc:	8fa40008 	lw	a0,8(sp)
  404b00:	00621821 	addu	v1,v1,v0
  404b04:	00641823 	subu	v1,v1,a0
  404b08:	00651821 	addu	v1,v1,a1
  404b0c:	afa30008 	sw	v1,8(sp)
  404b10:	8fa20000 	lw	v0,0(sp)
  404b14:	8fa30004 	lw	v1,4(sp)
  404b18:	8fa40008 	lw	a0,8(sp)
  404b1c:	00431021 	addu	v0,v0,v1
  404b20:	00441023 	subu	v0,v0,a0
  404b24:	00451021 	addu	v0,v0,a1
  404b28:	afa20004 	sw	v0,4(sp)
  404b2c:	8fa30000 	lw	v1,0(sp)
  404b30:	8fa20004 	lw	v0,4(sp)
  404b34:	8fa40008 	lw	a0,8(sp)
  404b38:	00621821 	addu	v1,v1,v0
  404b3c:	00641823 	subu	v1,v1,a0
  404b40:	00651821 	addu	v1,v1,a1
  404b44:	afa30000 	sw	v1,0(sp)
  404b48:	8fa20000 	lw	v0,0(sp)
  404b4c:	8fa30004 	lw	v1,4(sp)
  404b50:	8fa40008 	lw	a0,8(sp)
  404b54:	00431021 	addu	v0,v0,v1
  404b58:	00441023 	subu	v0,v0,a0
  404b5c:	00451021 	addu	v0,v0,a1
  404b60:	afa20008 	sw	v0,8(sp)
  404b64:	8fa30000 	lw	v1,0(sp)
  404b68:	8fa20004 	lw	v0,4(sp)
  404b6c:	8fa40008 	lw	a0,8(sp)
  404b70:	00621821 	addu	v1,v1,v0
  404b74:	00641823 	subu	v1,v1,a0
  404b78:	00651821 	addu	v1,v1,a1
  404b7c:	afa30004 	sw	v1,4(sp)
  404b80:	8fa20000 	lw	v0,0(sp)
  404b84:	8fa30004 	lw	v1,4(sp)
  404b88:	8fa40008 	lw	a0,8(sp)
  404b8c:	00431021 	addu	v0,v0,v1
  404b90:	00441023 	subu	v0,v0,a0
  404b94:	00451021 	addu	v0,v0,a1
  404b98:	afa20000 	sw	v0,0(sp)
  404b9c:	8fa30000 	lw	v1,0(sp)
  404ba0:	8fa20004 	lw	v0,4(sp)
  404ba4:	8fa40008 	lw	a0,8(sp)
  404ba8:	00621821 	addu	v1,v1,v0
  404bac:	00641823 	subu	v1,v1,a0
  404bb0:	00651821 	addu	v1,v1,a1
  404bb4:	24a50001 	addiu	a1,a1,1
  404bb8:	28a20002 	slti	v0,a1,2
  404bbc:	1440ff8e 	bnez	v0,4049f8 <func_11+0x440>
  404bc0:	afa30004 	sw	v1,4(sp)
  404bc4:	8fa20000 	lw	v0,0(sp)
  404bc8:	8fa30004 	lw	v1,4(sp)
  404bcc:	8fa40008 	lw	a0,8(sp)
  404bd0:	00431021 	addu	v0,v0,v1
  404bd4:	00441021 	addu	v0,v0,a0
  404bd8:	03e00008 	jr	ra
  404bdc:	27bd0010 	addiu	sp,sp,16

00404be0 <func_12>:
  404be0:	27bdfff0 	addiu	sp,sp,-16
  404be4:	2402000a 	li	v0,10
  404be8:	afa20000 	sw	v0,0(sp)
  404bec:	2403000b 	li	v1,11
  404bf0:	2402000c 	li	v0,12
  404bf4:	afa30004 	sw	v1,4(sp)
  404bf8:	00002821 	move	a1,zero
  404bfc:	afa20008 	sw	v0,8(sp)
  404c00:	8fa20000 	lw	v0,0(sp)
  404c04:	8fa30004 	lw	v1,4(sp)
  404c08:	8fa40008 	lw	a0,8(sp)
  404c0c:	00431021 	addu	v0,v0,v1
  404c10:	00441023 	subu	v0,v0,a0
  404c14:	00451021 	addu	v0,v0,a1
  404c18:	afa20000 	sw	v0,0(sp)
  404c1c:	8fa30000 	lw	v1,0(sp)
  404c20:	8fa20004 	lw	v0,4(sp)
  404c24:	8fa40008 	lw	a0,8(sp)
  404c28:	00621821 	addu	v1,v1,v0
  404c2c:	00641823 	subu	v1,v1,a0
  404c30:	00651821 	addu	v1,v1,a1
  404c34:	afa30004 	sw	v1,4(sp)
  404c38:	8fa20000 	lw	v0,0(sp)
  404c3c:	8fa30004 	lw	v1,4(sp)
  404c40:	8fa40008 	lw	a0,8(sp)
  404c44:	00431021 	addu	v0,v0,v1
  404c48:	00441023 	subu	v0,v0,a0
  404c4c:	00451021 	addu	v0,v0,a1
  404c50:	afa20008 	sw	v0,8(sp)
  404c54:	8fa30000 	lw	v1,0(sp)
  404c58:	8fa20004 	lw	v0,4(sp)
  404c5c:	8fa40008 	lw	a0,8(sp)
  404c60:	00621821 	addu	v1,v1,v0
  404c64:	00641823 	subu	v1,v1,a0
  404c68:	00651821 	addu	v1,v1,a1
  404c6c:	afa30000 	sw	v1,0(sp)
  404c70:	8fa20000 	lw	v0,0(sp)
  404c74:	8fa30004 	lw	v1,4(sp)
  404c78:	8fa40008 	lw	a0,8(sp)
  404c7c:	00431021 	addu	v0,v0,v1
  404c80:	00441023 	subu	v0,v0,a0
  404c84:	00451021 	addu	v0,v0,a1
  404c88:	afa20004 	sw	v0,4(sp)
  404c8c:	8fa30000 	lw	v1,0(sp)
  404c90:	8fa20004 	lw	v0,4(sp)
  404c94:	8fa40008 	lw	a0,8(sp)
  404c98:	00621821 	addu	v1,v1,v0
  404c9c:	00641823 	subu	v1,v1,a0
  404ca0:	00651821 	addu	v1,v1,a1
  404ca4:	afa30008 	sw	v1,8(sp)
  404ca8:	8fa20000 	lw	v0,0(sp)
  404cac:	8fa30004 	lw	v1,4(sp)
  404cb0:	8fa40008 	lw	a0,8(sp)
  404cb4:	00431021 	addu	v0,v0,v1
  404cb8:	00441023 	subu	v0,v0,a0
  404cbc:	00451021 	addu	v0,v0,a1
  404cc0:	afa20000 	sw	v0,0(sp)
  404cc4:	8fa30000 	lw	v1,0(sp)
  404cc8:	8fa20004 	lw	v0,4(sp)
  404ccc:	8fa40008 	lw	a0,8(sp)
  404cd0:	00621821 	addu	v1,v1,v0
  404cd4:	00641823 	subu	v1,v1,a0
  404cd8:	00651821 	addu	v1,v1,a1
  404cdc:	afa30004 	sw	v1,4(sp)
  404ce0:	8fa20000 	lw	v0,0(sp)
  404ce4:	8fa30004 	lw	v1,4(sp)
  404ce8:	8fa40008 	lw	a0,8(sp)
  404cec:	00431021 	addu	v0,v0,v1
  404cf0:	00441023 	subu	v0,v0,a0
  404cf4:	00451021 	addu	v0,v0,a1
  404cf8:	afa20008 	sw	v0,8(sp)
  404cfc:	8fa30000 	lw	v1,0(sp)
  404d00:	8fa20004 	lw	v0,4(sp)
  404d04:	8fa40008 	lw	a0,8(sp)
  404d08:	00621821 	addu	v1,v1,v0
  404d0c:	00641823 	subu	v1,v1,a0
  404d10:	00651821 	addu	v1,v1,a1
  404d14:	afa30000 	sw	v1,0(sp)
  404d18:	8fa20000 	lw	v0,0(sp)
  404d1c:	8fa30004 	lw	v1,4(sp)
  404d20:	8fa40008 	lw	a0,8(sp)
  404d24:	00431021 	addu	v0,v0,v1
  404d28:	00441023 	subu	v0,v0,a0
  404d2c:	00451021 	addu	v0,v0,a1
  404d30:	afa20004 	sw	v0,4(sp)
  404d34:	8fa30000 	lw	v1,0(sp)
  404d38:	8fa20004 	lw	v0,4(sp)
  404d3c:	8fa40008 	lw	a0,8(sp)
  404d40:	00621821 	addu	v1,v1,v0
  404d44:	00641823 	subu	v1,v1,a0
  404d48:	00651821 	addu	v1,v1,a1
  404d4c:	afa30008 	sw	v1,8(sp)
  404d50:	8fa20000 	lw	v0,0(sp)
  404d54:	8fa30004 	lw	v1,4(sp)
  404d58:	8fa40008 	lw	a0,8(sp)
  404d5c:	00431021 	addu	v0,v0,v1
  404d60:	00441023 	subu	v0,v0,a0
  404d64:	00451021 	addu	v0,v0,a1
  404d68:	afa20000 	sw	v0,0(sp)
  404d6c:	8fa30000 	lw	v1,0(sp)
  404d70:	8fa20004 	lw	v0,4(sp)
  404d74:	8fa40008 	lw	a0,8(sp)
  404d78:	00621821 	addu	v1,v1,v0
  404d7c:	00641823 	subu	v1,v1,a0
  404d80:	00651821 	addu	v1,v1,a1
  404d84:	afa30004 	sw	v1,4(sp)
  404d88:	8fa20000 	lw	v0,0(sp)
  404d8c:	8fa30004 	lw	v1,4(sp)
  404d90:	8fa40008 	lw	a0,8(sp)
  404d94:	00431021 	addu	v0,v0,v1
  404d98:	00441023 	subu	v0,v0,a0
  404d9c:	00451021 	addu	v0,v0,a1
  404da0:	afa20008 	sw	v0,8(sp)
  404da4:	8fa30000 	lw	v1,0(sp)
  404da8:	8fa20004 	lw	v0,4(sp)
  404dac:	8fa40008 	lw	a0,8(sp)
  404db0:	00621821 	addu	v1,v1,v0
  404db4:	00641823 	subu	v1,v1,a0
  404db8:	00651821 	addu	v1,v1,a1
  404dbc:	24a50001 	addiu	a1,a1,1
  404dc0:	28a20002 	slti	v0,a1,2
  404dc4:	1440ff8e 	bnez	v0,404c00 <func_12+0x20>
  404dc8:	afa30000 	sw	v1,0(sp)
  404dcc:	00002821 	move	a1,zero
  404dd0:	8fa20000 	lw	v0,0(sp)
  404dd4:	8fa30004 	lw	v1,4(sp)
  404dd8:	8fa40008 	lw	a0,8(sp)
  404ddc:	00431021 	addu	v0,v0,v1
  404de0:	00441023 	subu	v0,v0,a0
  404de4:	00451021 	addu	v0,v0,a1
  404de8:	afa20004 	sw	v0,4(sp)
  404dec:	8fa30000 	lw	v1,0(sp)
  404df0:	8fa20004 	lw	v0,4(sp)
  404df4:	8fa40008 	lw	a0,8(sp)
  404df8:	00621821 	addu	v1,v1,v0
  404dfc:	00641823 	subu	v1,v1,a0
  404e00:	00651821 	addu	v1,v1,a1
  404e04:	afa30000 	sw	v1,0(sp)
  404e08:	8fa20000 	lw	v0,0(sp)
  404e0c:	8fa30004 	lw	v1,4(sp)
  404e10:	8fa40008 	lw	a0,8(sp)
  404e14:	00431021 	addu	v0,v0,v1
  404e18:	00441023 	subu	v0,v0,a0
  404e1c:	00451021 	addu	v0,v0,a1
  404e20:	afa20008 	sw	v0,8(sp)
  404e24:	8fa30000 	lw	v1,0(sp)
  404e28:	8fa20004 	lw	v0,4(sp)
  404e2c:	8fa40008 	lw	a0,8(sp)
  404e30:	00621821 	addu	v1,v1,v0
  404e34:	00641823 	subu	v1,v1,a0
  404e38:	00651821 	addu	v1,v1,a1
  404e3c:	afa30004 	sw	v1,4(sp)
  404e40:	8fa20000 	lw	v0,0(sp)
  404e44:	8fa30004 	lw	v1,4(sp)
  404e48:	8fa40008 	lw	a0,8(sp)
  404e4c:	00431021 	addu	v0,v0,v1
  404e50:	00441023 	subu	v0,v0,a0
  404e54:	00451021 	addu	v0,v0,a1
  404e58:	afa20004 	sw	v0,4(sp)
  404e5c:	8fa30000 	lw	v1,0(sp)
  404e60:	8fa20004 	lw	v0,4(sp)
  404e64:	8fa40008 	lw	a0,8(sp)
  404e68:	00621821 	addu	v1,v1,v0
  404e6c:	00641823 	subu	v1,v1,a0
  404e70:	00651821 	addu	v1,v1,a1
  404e74:	afa30000 	sw	v1,0(sp)
  404e78:	8fa20000 	lw	v0,0(sp)
  404e7c:	8fa30004 	lw	v1,4(sp)
  404e80:	8fa40008 	lw	a0,8(sp)
  404e84:	00431021 	addu	v0,v0,v1
  404e88:	00441023 	subu	v0,v0,a0
  404e8c:	00451021 	addu	v0,v0,a1
  404e90:	afa20008 	sw	v0,8(sp)
  404e94:	8fa30000 	lw	v1,0(sp)
  404e98:	8fa20004 	lw	v0,4(sp)
  404e9c:	8fa40008 	lw	a0,8(sp)
  404ea0:	00621821 	addu	v1,v1,v0
  404ea4:	00641823 	subu	v1,v1,a0
  404ea8:	00651821 	addu	v1,v1,a1
  404eac:	afa30004 	sw	v1,4(sp)
  404eb0:	8fa20000 	lw	v0,0(sp)
  404eb4:	8fa30004 	lw	v1,4(sp)
  404eb8:	8fa40008 	lw	a0,8(sp)
  404ebc:	00431021 	addu	v0,v0,v1
  404ec0:	00441023 	subu	v0,v0,a0
  404ec4:	00451021 	addu	v0,v0,a1
  404ec8:	afa20000 	sw	v0,0(sp)
  404ecc:	8fa30000 	lw	v1,0(sp)
  404ed0:	8fa20004 	lw	v0,4(sp)
  404ed4:	8fa40008 	lw	a0,8(sp)
  404ed8:	00621821 	addu	v1,v1,v0
  404edc:	00641823 	subu	v1,v1,a0
  404ee0:	00651821 	addu	v1,v1,a1
  404ee4:	afa30008 	sw	v1,8(sp)
  404ee8:	8fa20000 	lw	v0,0(sp)
  404eec:	8fa30004 	lw	v1,4(sp)
  404ef0:	8fa40008 	lw	a0,8(sp)
  404ef4:	00431021 	addu	v0,v0,v1
  404ef8:	00441023 	subu	v0,v0,a0
  404efc:	00451021 	addu	v0,v0,a1
  404f00:	afa20004 	sw	v0,4(sp)
  404f04:	8fa30000 	lw	v1,0(sp)
  404f08:	8fa20004 	lw	v0,4(sp)
  404f0c:	8fa40008 	lw	a0,8(sp)
  404f10:	00621821 	addu	v1,v1,v0
  404f14:	00641823 	subu	v1,v1,a0
  404f18:	00651821 	addu	v1,v1,a1
  404f1c:	afa30000 	sw	v1,0(sp)
  404f20:	8fa20000 	lw	v0,0(sp)
  404f24:	8fa30004 	lw	v1,4(sp)
  404f28:	8fa40008 	lw	a0,8(sp)
  404f2c:	00431021 	addu	v0,v0,v1
  404f30:	00441023 	subu	v0,v0,a0
  404f34:	00451021 	addu	v0,v0,a1
  404f38:	24a50001 	addiu	a1,a1,1
  404f3c:	28a30002 	slti	v1,a1,2
  404f40:	1460ffa3 	bnez	v1,404dd0 <func_12+0x1f0>
  404f44:	afa20008 	sw	v0,8(sp)
  404f48:	00002821 	move	a1,zero
  404f4c:	8fa20000 	lw	v0,0(sp)
  404f50:	8fa30004 	lw	v1,4(sp)
  404f54:	8fa40008 	lw	a0,8(sp)
  404f58:	00431021 	addu	v0,v0,v1
  404f5c:	00441023 	subu	v0,v0,a0
  404f60:	00451021 	addu	v0,v0,a1
  404f64:	afa20008 	sw	v0,8(sp)
  404f68:	8fa30000 	lw	v1,0(sp)
  404f6c:	8fa20004 	lw	v0,4(sp)
  404f70:	8fa40008 	lw	a0,8(sp)
  404f74:	00621821 	addu	v1,v1,v0
  404f78:	00641823 	subu	v1,v1,a0
  404f7c:	00651821 	addu	v1,v1,a1
  404f80:	afa30004 	sw	v1,4(sp)
  404f84:	8fa20000 	lw	v0,0(sp)
  404f88:	8fa30004 	lw	v1,4(sp)
  404f8c:	8fa40008 	lw	a0,8(sp)
  404f90:	00431021 	addu	v0,v0,v1
  404f94:	00441023 	subu	v0,v0,a0
  404f98:	00451021 	addu	v0,v0,a1
  404f9c:	afa20000 	sw	v0,0(sp)
  404fa0:	8fa30000 	lw	v1,0(sp)
  404fa4:	8fa20004 	lw	v0,4(sp)
  404fa8:	8fa40008 	lw	a0,8(sp)
  404fac:	00621821 	addu	v1,v1,v0
  404fb0:	00641823 	subu	v1,v1,a0
  404fb4:	00651821 	addu	v1,v1,a1
  404fb8:	afa30008 	sw	v1,8(sp)
  404fbc:	8fa20000 	lw	v0,0(sp)
  404fc0:	8fa30004 	lw	v1,4(sp)
  404fc4:	8fa40008 	lw	a0,8(sp)
  404fc8:	00431021 	addu	v0,v0,v1
  404fcc:	00441023 	subu	v0,v0,a0
  404fd0:	00451021 	addu	v0,v0,a1
  404fd4:	afa20004 	sw	v0,4(sp)
  404fd8:	8fa30000 	lw	v1,0(sp)
  404fdc:	8fa20004 	lw	v0,4(sp)
  404fe0:	8fa40008 	lw	a0,8(sp)
  404fe4:	00621821 	addu	v1,v1,v0
  404fe8:	00641823 	subu	v1,v1,a0
  404fec:	00651821 	addu	v1,v1,a1
  404ff0:	afa30000 	sw	v1,0(sp)
  404ff4:	8fa20000 	lw	v0,0(sp)
  404ff8:	8fa30004 	lw	v1,4(sp)
  404ffc:	8fa40008 	lw	a0,8(sp)
  405000:	00431021 	addu	v0,v0,v1
  405004:	00441023 	subu	v0,v0,a0
  405008:	00451021 	addu	v0,v0,a1
  40500c:	24a50001 	addiu	a1,a1,1
  405010:	28a30002 	slti	v1,a1,2
  405014:	1460ffcd 	bnez	v1,404f4c <func_12+0x36c>
  405018:	afa20008 	sw	v0,8(sp)
  40501c:	00002821 	move	a1,zero
  405020:	8fa20000 	lw	v0,0(sp)
  405024:	8fa30004 	lw	v1,4(sp)
  405028:	8fa40008 	lw	a0,8(sp)
  40502c:	00431021 	addu	v0,v0,v1
  405030:	00441023 	subu	v0,v0,a0
  405034:	00451021 	addu	v0,v0,a1
  405038:	afa20000 	sw	v0,0(sp)
  40503c:	8fa30000 	lw	v1,0(sp)
  405040:	8fa20004 	lw	v0,4(sp)
  405044:	8fa40008 	lw	a0,8(sp)
  405048:	00621821 	addu	v1,v1,v0
  40504c:	00641823 	subu	v1,v1,a0
  405050:	00651821 	addu	v1,v1,a1
  405054:	afa30008 	sw	v1,8(sp)
  405058:	8fa20000 	lw	v0,0(sp)
  40505c:	8fa30004 	lw	v1,4(sp)
  405060:	8fa40008 	lw	a0,8(sp)
  405064:	00431021 	addu	v0,v0,v1
  405068:	00441023 	subu	v0,v0,a0
  40506c:	00451021 	addu	v0,v0,a1
  405070:	afa20004 	sw	v0,4(sp)
  405074:	8fa30000 	lw	v1,0(sp)
  405078:	8fa20004 	lw	v0,4(sp)
  40507c:	8fa40008 	lw	a0,8(sp)
  405080:	00621821 	addu	v1,v1,v0
  405084:	00641823 	subu	v1,v1,a0
  405088:	00651821 	addu	v1,v1,a1
  40508c:	afa30000 	sw	v1,0(sp)
  405090:	8fa20000 	lw	v0,0(sp)
  405094:	8fa30004 	lw	v1,4(sp)
  405098:	8fa40008 	lw	a0,8(sp)
  40509c:	00431021 	addu	v0,v0,v1
  4050a0:	00441023 	subu	v0,v0,a0
  4050a4:	00451021 	addu	v0,v0,a1
  4050a8:	afa20008 	sw	v0,8(sp)
  4050ac:	8fa30000 	lw	v1,0(sp)
  4050b0:	8fa20004 	lw	v0,4(sp)
  4050b4:	8fa40008 	lw	a0,8(sp)
  4050b8:	00621821 	addu	v1,v1,v0
  4050bc:	00641823 	subu	v1,v1,a0
  4050c0:	00651821 	addu	v1,v1,a1
  4050c4:	afa30004 	sw	v1,4(sp)
  4050c8:	8fa20000 	lw	v0,0(sp)
  4050cc:	8fa30004 	lw	v1,4(sp)
  4050d0:	8fa40008 	lw	a0,8(sp)
  4050d4:	00431021 	addu	v0,v0,v1
  4050d8:	00441023 	subu	v0,v0,a0
  4050dc:	00451021 	addu	v0,v0,a1
  4050e0:	afa20000 	sw	v0,0(sp)
  4050e4:	8fa30000 	lw	v1,0(sp)
  4050e8:	8fa20004 	lw	v0,4(sp)
  4050ec:	8fa40008 	lw	a0,8(sp)
  4050f0:	00621821 	addu	v1,v1,v0
  4050f4:	00641823 	subu	v1,v1,a0
  4050f8:	00651821 	addu	v1,v1,a1
  4050fc:	afa30004 	sw	v1,4(sp)
  405100:	8fa20000 	lw	v0,0(sp)
  405104:	8fa30004 	lw	v1,4(sp)
  405108:	8fa40008 	lw	a0,8(sp)
  40510c:	00431021 	addu	v0,v0,v1
  405110:	00441023 	subu	v0,v0,a0
  405114:	00451021 	addu	v0,v0,a1
  405118:	afa20000 	sw	v0,0(sp)
  40511c:	8fa30000 	lw	v1,0(sp)
  405120:	8fa20004 	lw	v0,4(sp)
  405124:	8fa40008 	lw	a0,8(sp)
  405128:	00621821 	addu	v1,v1,v0
  40512c:	00641823 	subu	v1,v1,a0
  405130:	00651821 	addu	v1,v1,a1
  405134:	afa30008 	sw	v1,8(sp)
  405138:	8fa20000 	lw	v0,0(sp)
  40513c:	8fa30004 	lw	v1,4(sp)
  405140:	8fa40008 	lw	a0,8(sp)
  405144:	00431021 	addu	v0,v0,v1
  405148:	00441023 	subu	v0,v0,a0
  40514c:	00451021 	addu	v0,v0,a1
  405150:	afa20004 	sw	v0,4(sp)
  405154:	8fa30000 	lw	v1,0(sp)
  405158:	8fa20004 	lw	v0,4(sp)
  40515c:	8fa40008 	lw	a0,8(sp)
  405160:	00621821 	addu	v1,v1,v0
  405164:	00641823 	subu	v1,v1,a0
  405168:	00651821 	addu	v1,v1,a1
  40516c:	afa30000 	sw	v1,0(sp)
  405170:	8fa20000 	lw	v0,0(sp)
  405174:	8fa30004 	lw	v1,4(sp)
  405178:	8fa40008 	lw	a0,8(sp)
  40517c:	00431021 	addu	v0,v0,v1
  405180:	00441023 	subu	v0,v0,a0
  405184:	00451021 	addu	v0,v0,a1
  405188:	afa20008 	sw	v0,8(sp)
  40518c:	8fa30000 	lw	v1,0(sp)
  405190:	8fa20004 	lw	v0,4(sp)
  405194:	8fa40008 	lw	a0,8(sp)
  405198:	00621821 	addu	v1,v1,v0
  40519c:	00641823 	subu	v1,v1,a0
  4051a0:	00651821 	addu	v1,v1,a1
  4051a4:	afa30004 	sw	v1,4(sp)
  4051a8:	8fa20000 	lw	v0,0(sp)
  4051ac:	8fa30004 	lw	v1,4(sp)
  4051b0:	8fa40008 	lw	a0,8(sp)
  4051b4:	00431021 	addu	v0,v0,v1
  4051b8:	00441023 	subu	v0,v0,a0
  4051bc:	00451021 	addu	v0,v0,a1
  4051c0:	afa20000 	sw	v0,0(sp)
  4051c4:	8fa30000 	lw	v1,0(sp)
  4051c8:	8fa20004 	lw	v0,4(sp)
  4051cc:	8fa40008 	lw	a0,8(sp)
  4051d0:	00621821 	addu	v1,v1,v0
  4051d4:	00641823 	subu	v1,v1,a0
  4051d8:	00651821 	addu	v1,v1,a1
  4051dc:	24a50001 	addiu	a1,a1,1
  4051e0:	28a20002 	slti	v0,a1,2
  4051e4:	1440ff8e 	bnez	v0,405020 <func_12+0x440>
  4051e8:	afa30004 	sw	v1,4(sp)
  4051ec:	8fa20000 	lw	v0,0(sp)
  4051f0:	8fa30004 	lw	v1,4(sp)
  4051f4:	8fa40008 	lw	a0,8(sp)
  4051f8:	00431021 	addu	v0,v0,v1
  4051fc:	00441021 	addu	v0,v0,a0
  405200:	03e00008 	jr	ra
  405204:	27bd0010 	addiu	sp,sp,16

00405208 <func_13>:
  405208:	27bdfff0 	addiu	sp,sp,-16
  40520c:	2402000a 	li	v0,10
  405210:	afa20000 	sw	v0,0(sp)
  405214:	2403000b 	li	v1,11
  405218:	2402000c 	li	v0,12
  40521c:	afa30004 	sw	v1,4(sp)
  405220:	00002821 	move	a1,zero
  405224:	afa20008 	sw	v0,8(sp)
  405228:	8fa20000 	lw	v0,0(sp)
  40522c:	8fa30004 	lw	v1,4(sp)
  405230:	8fa40008 	lw	a0,8(sp)
  405234:	00431021 	addu	v0,v0,v1
  405238:	00441023 	subu	v0,v0,a0
  40523c:	00451021 	addu	v0,v0,a1
  405240:	afa20000 	sw	v0,0(sp)
  405244:	8fa30000 	lw	v1,0(sp)
  405248:	8fa20004 	lw	v0,4(sp)
  40524c:	8fa40008 	lw	a0,8(sp)
  405250:	00621821 	addu	v1,v1,v0
  405254:	00641823 	subu	v1,v1,a0
  405258:	00651821 	addu	v1,v1,a1
  40525c:	afa30004 	sw	v1,4(sp)
  405260:	8fa20000 	lw	v0,0(sp)
  405264:	8fa30004 	lw	v1,4(sp)
  405268:	8fa40008 	lw	a0,8(sp)
  40526c:	00431021 	addu	v0,v0,v1
  405270:	00441023 	subu	v0,v0,a0
  405274:	00451021 	addu	v0,v0,a1
  405278:	afa20008 	sw	v0,8(sp)
  40527c:	8fa30000 	lw	v1,0(sp)
  405280:	8fa20004 	lw	v0,4(sp)
  405284:	8fa40008 	lw	a0,8(sp)
  405288:	00621821 	addu	v1,v1,v0
  40528c:	00641823 	subu	v1,v1,a0
  405290:	00651821 	addu	v1,v1,a1
  405294:	afa30000 	sw	v1,0(sp)
  405298:	8fa20000 	lw	v0,0(sp)
  40529c:	8fa30004 	lw	v1,4(sp)
  4052a0:	8fa40008 	lw	a0,8(sp)
  4052a4:	00431021 	addu	v0,v0,v1
  4052a8:	00441023 	subu	v0,v0,a0
  4052ac:	00451021 	addu	v0,v0,a1
  4052b0:	afa20004 	sw	v0,4(sp)
  4052b4:	8fa30000 	lw	v1,0(sp)
  4052b8:	8fa20004 	lw	v0,4(sp)
  4052bc:	8fa40008 	lw	a0,8(sp)
  4052c0:	00621821 	addu	v1,v1,v0
  4052c4:	00641823 	subu	v1,v1,a0
  4052c8:	00651821 	addu	v1,v1,a1
  4052cc:	afa30008 	sw	v1,8(sp)
  4052d0:	8fa20000 	lw	v0,0(sp)
  4052d4:	8fa30004 	lw	v1,4(sp)
  4052d8:	8fa40008 	lw	a0,8(sp)
  4052dc:	00431021 	addu	v0,v0,v1
  4052e0:	00441023 	subu	v0,v0,a0
  4052e4:	00451021 	addu	v0,v0,a1
  4052e8:	afa20000 	sw	v0,0(sp)
  4052ec:	8fa30000 	lw	v1,0(sp)
  4052f0:	8fa20004 	lw	v0,4(sp)
  4052f4:	8fa40008 	lw	a0,8(sp)
  4052f8:	00621821 	addu	v1,v1,v0
  4052fc:	00641823 	subu	v1,v1,a0
  405300:	00651821 	addu	v1,v1,a1
  405304:	afa30004 	sw	v1,4(sp)
  405308:	8fa20000 	lw	v0,0(sp)
  40530c:	8fa30004 	lw	v1,4(sp)
  405310:	8fa40008 	lw	a0,8(sp)
  405314:	00431021 	addu	v0,v0,v1
  405318:	00441023 	subu	v0,v0,a0
  40531c:	00451021 	addu	v0,v0,a1
  405320:	afa20008 	sw	v0,8(sp)
  405324:	8fa30000 	lw	v1,0(sp)
  405328:	8fa20004 	lw	v0,4(sp)
  40532c:	8fa40008 	lw	a0,8(sp)
  405330:	00621821 	addu	v1,v1,v0
  405334:	00641823 	subu	v1,v1,a0
  405338:	00651821 	addu	v1,v1,a1
  40533c:	afa30000 	sw	v1,0(sp)
  405340:	8fa20000 	lw	v0,0(sp)
  405344:	8fa30004 	lw	v1,4(sp)
  405348:	8fa40008 	lw	a0,8(sp)
  40534c:	00431021 	addu	v0,v0,v1
  405350:	00441023 	subu	v0,v0,a0
  405354:	00451021 	addu	v0,v0,a1
  405358:	afa20004 	sw	v0,4(sp)
  40535c:	8fa30000 	lw	v1,0(sp)
  405360:	8fa20004 	lw	v0,4(sp)
  405364:	8fa40008 	lw	a0,8(sp)
  405368:	00621821 	addu	v1,v1,v0
  40536c:	00641823 	subu	v1,v1,a0
  405370:	00651821 	addu	v1,v1,a1
  405374:	afa30008 	sw	v1,8(sp)
  405378:	8fa20000 	lw	v0,0(sp)
  40537c:	8fa30004 	lw	v1,4(sp)
  405380:	8fa40008 	lw	a0,8(sp)
  405384:	00431021 	addu	v0,v0,v1
  405388:	00441023 	subu	v0,v0,a0
  40538c:	00451021 	addu	v0,v0,a1
  405390:	afa20000 	sw	v0,0(sp)
  405394:	8fa30000 	lw	v1,0(sp)
  405398:	8fa20004 	lw	v0,4(sp)
  40539c:	8fa40008 	lw	a0,8(sp)
  4053a0:	00621821 	addu	v1,v1,v0
  4053a4:	00641823 	subu	v1,v1,a0
  4053a8:	00651821 	addu	v1,v1,a1
  4053ac:	afa30004 	sw	v1,4(sp)
  4053b0:	8fa20000 	lw	v0,0(sp)
  4053b4:	8fa30004 	lw	v1,4(sp)
  4053b8:	8fa40008 	lw	a0,8(sp)
  4053bc:	00431021 	addu	v0,v0,v1
  4053c0:	00441023 	subu	v0,v0,a0
  4053c4:	00451021 	addu	v0,v0,a1
  4053c8:	afa20008 	sw	v0,8(sp)
  4053cc:	8fa30000 	lw	v1,0(sp)
  4053d0:	8fa20004 	lw	v0,4(sp)
  4053d4:	8fa40008 	lw	a0,8(sp)
  4053d8:	00621821 	addu	v1,v1,v0
  4053dc:	00641823 	subu	v1,v1,a0
  4053e0:	00651821 	addu	v1,v1,a1
  4053e4:	24a50001 	addiu	a1,a1,1
  4053e8:	28a20002 	slti	v0,a1,2
  4053ec:	1440ff8e 	bnez	v0,405228 <func_13+0x20>
  4053f0:	afa30000 	sw	v1,0(sp)
  4053f4:	00002821 	move	a1,zero
  4053f8:	8fa20000 	lw	v0,0(sp)
  4053fc:	8fa30004 	lw	v1,4(sp)
  405400:	8fa40008 	lw	a0,8(sp)
  405404:	00431021 	addu	v0,v0,v1
  405408:	00441023 	subu	v0,v0,a0
  40540c:	00451021 	addu	v0,v0,a1
  405410:	afa20004 	sw	v0,4(sp)
  405414:	8fa30000 	lw	v1,0(sp)
  405418:	8fa20004 	lw	v0,4(sp)
  40541c:	8fa40008 	lw	a0,8(sp)
  405420:	00621821 	addu	v1,v1,v0
  405424:	00641823 	subu	v1,v1,a0
  405428:	00651821 	addu	v1,v1,a1
  40542c:	afa30000 	sw	v1,0(sp)
  405430:	8fa20000 	lw	v0,0(sp)
  405434:	8fa30004 	lw	v1,4(sp)
  405438:	8fa40008 	lw	a0,8(sp)
  40543c:	00431021 	addu	v0,v0,v1
  405440:	00441023 	subu	v0,v0,a0
  405444:	00451021 	addu	v0,v0,a1
  405448:	afa20008 	sw	v0,8(sp)
  40544c:	8fa30000 	lw	v1,0(sp)
  405450:	8fa20004 	lw	v0,4(sp)
  405454:	8fa40008 	lw	a0,8(sp)
  405458:	00621821 	addu	v1,v1,v0
  40545c:	00641823 	subu	v1,v1,a0
  405460:	00651821 	addu	v1,v1,a1
  405464:	afa30004 	sw	v1,4(sp)
  405468:	8fa20000 	lw	v0,0(sp)
  40546c:	8fa30004 	lw	v1,4(sp)
  405470:	8fa40008 	lw	a0,8(sp)
  405474:	00431021 	addu	v0,v0,v1
  405478:	00441023 	subu	v0,v0,a0
  40547c:	00451021 	addu	v0,v0,a1
  405480:	afa20004 	sw	v0,4(sp)
  405484:	8fa30000 	lw	v1,0(sp)
  405488:	8fa20004 	lw	v0,4(sp)
  40548c:	8fa40008 	lw	a0,8(sp)
  405490:	00621821 	addu	v1,v1,v0
  405494:	00641823 	subu	v1,v1,a0
  405498:	00651821 	addu	v1,v1,a1
  40549c:	afa30000 	sw	v1,0(sp)
  4054a0:	8fa20000 	lw	v0,0(sp)
  4054a4:	8fa30004 	lw	v1,4(sp)
  4054a8:	8fa40008 	lw	a0,8(sp)
  4054ac:	00431021 	addu	v0,v0,v1
  4054b0:	00441023 	subu	v0,v0,a0
  4054b4:	00451021 	addu	v0,v0,a1
  4054b8:	afa20008 	sw	v0,8(sp)
  4054bc:	8fa30000 	lw	v1,0(sp)
  4054c0:	8fa20004 	lw	v0,4(sp)
  4054c4:	8fa40008 	lw	a0,8(sp)
  4054c8:	00621821 	addu	v1,v1,v0
  4054cc:	00641823 	subu	v1,v1,a0
  4054d0:	00651821 	addu	v1,v1,a1
  4054d4:	afa30004 	sw	v1,4(sp)
  4054d8:	8fa20000 	lw	v0,0(sp)
  4054dc:	8fa30004 	lw	v1,4(sp)
  4054e0:	8fa40008 	lw	a0,8(sp)
  4054e4:	00431021 	addu	v0,v0,v1
  4054e8:	00441023 	subu	v0,v0,a0
  4054ec:	00451021 	addu	v0,v0,a1
  4054f0:	afa20000 	sw	v0,0(sp)
  4054f4:	8fa30000 	lw	v1,0(sp)
  4054f8:	8fa20004 	lw	v0,4(sp)
  4054fc:	8fa40008 	lw	a0,8(sp)
  405500:	00621821 	addu	v1,v1,v0
  405504:	00641823 	subu	v1,v1,a0
  405508:	00651821 	addu	v1,v1,a1
  40550c:	afa30008 	sw	v1,8(sp)
  405510:	8fa20000 	lw	v0,0(sp)
  405514:	8fa30004 	lw	v1,4(sp)
  405518:	8fa40008 	lw	a0,8(sp)
  40551c:	00431021 	addu	v0,v0,v1
  405520:	00441023 	subu	v0,v0,a0
  405524:	00451021 	addu	v0,v0,a1
  405528:	afa20004 	sw	v0,4(sp)
  40552c:	8fa30000 	lw	v1,0(sp)
  405530:	8fa20004 	lw	v0,4(sp)
  405534:	8fa40008 	lw	a0,8(sp)
  405538:	00621821 	addu	v1,v1,v0
  40553c:	00641823 	subu	v1,v1,a0
  405540:	00651821 	addu	v1,v1,a1
  405544:	afa30000 	sw	v1,0(sp)
  405548:	8fa20000 	lw	v0,0(sp)
  40554c:	8fa30004 	lw	v1,4(sp)
  405550:	8fa40008 	lw	a0,8(sp)
  405554:	00431021 	addu	v0,v0,v1
  405558:	00441023 	subu	v0,v0,a0
  40555c:	00451021 	addu	v0,v0,a1
  405560:	24a50001 	addiu	a1,a1,1
  405564:	28a30002 	slti	v1,a1,2
  405568:	1460ffa3 	bnez	v1,4053f8 <func_13+0x1f0>
  40556c:	afa20008 	sw	v0,8(sp)
  405570:	00002821 	move	a1,zero
  405574:	8fa20000 	lw	v0,0(sp)
  405578:	8fa30004 	lw	v1,4(sp)
  40557c:	8fa40008 	lw	a0,8(sp)
  405580:	00431021 	addu	v0,v0,v1
  405584:	00441023 	subu	v0,v0,a0
  405588:	00451021 	addu	v0,v0,a1
  40558c:	afa20008 	sw	v0,8(sp)
  405590:	8fa30000 	lw	v1,0(sp)
  405594:	8fa20004 	lw	v0,4(sp)
  405598:	8fa40008 	lw	a0,8(sp)
  40559c:	00621821 	addu	v1,v1,v0
  4055a0:	00641823 	subu	v1,v1,a0
  4055a4:	00651821 	addu	v1,v1,a1
  4055a8:	afa30004 	sw	v1,4(sp)
  4055ac:	8fa20000 	lw	v0,0(sp)
  4055b0:	8fa30004 	lw	v1,4(sp)
  4055b4:	8fa40008 	lw	a0,8(sp)
  4055b8:	00431021 	addu	v0,v0,v1
  4055bc:	00441023 	subu	v0,v0,a0
  4055c0:	00451021 	addu	v0,v0,a1
  4055c4:	afa20000 	sw	v0,0(sp)
  4055c8:	8fa30000 	lw	v1,0(sp)
  4055cc:	8fa20004 	lw	v0,4(sp)
  4055d0:	8fa40008 	lw	a0,8(sp)
  4055d4:	00621821 	addu	v1,v1,v0
  4055d8:	00641823 	subu	v1,v1,a0
  4055dc:	00651821 	addu	v1,v1,a1
  4055e0:	afa30008 	sw	v1,8(sp)
  4055e4:	8fa20000 	lw	v0,0(sp)
  4055e8:	8fa30004 	lw	v1,4(sp)
  4055ec:	8fa40008 	lw	a0,8(sp)
  4055f0:	00431021 	addu	v0,v0,v1
  4055f4:	00441023 	subu	v0,v0,a0
  4055f8:	00451021 	addu	v0,v0,a1
  4055fc:	afa20004 	sw	v0,4(sp)
  405600:	8fa30000 	lw	v1,0(sp)
  405604:	8fa20004 	lw	v0,4(sp)
  405608:	8fa40008 	lw	a0,8(sp)
  40560c:	00621821 	addu	v1,v1,v0
  405610:	00641823 	subu	v1,v1,a0
  405614:	00651821 	addu	v1,v1,a1
  405618:	afa30000 	sw	v1,0(sp)
  40561c:	8fa20000 	lw	v0,0(sp)
  405620:	8fa30004 	lw	v1,4(sp)
  405624:	8fa40008 	lw	a0,8(sp)
  405628:	00431021 	addu	v0,v0,v1
  40562c:	00441023 	subu	v0,v0,a0
  405630:	00451021 	addu	v0,v0,a1
  405634:	24a50001 	addiu	a1,a1,1
  405638:	28a30002 	slti	v1,a1,2
  40563c:	1460ffcd 	bnez	v1,405574 <func_13+0x36c>
  405640:	afa20008 	sw	v0,8(sp)
  405644:	00002821 	move	a1,zero
  405648:	8fa20000 	lw	v0,0(sp)
  40564c:	8fa30004 	lw	v1,4(sp)
  405650:	8fa40008 	lw	a0,8(sp)
  405654:	00431021 	addu	v0,v0,v1
  405658:	00441023 	subu	v0,v0,a0
  40565c:	00451021 	addu	v0,v0,a1
  405660:	afa20000 	sw	v0,0(sp)
  405664:	8fa30000 	lw	v1,0(sp)
  405668:	8fa20004 	lw	v0,4(sp)
  40566c:	8fa40008 	lw	a0,8(sp)
  405670:	00621821 	addu	v1,v1,v0
  405674:	00641823 	subu	v1,v1,a0
  405678:	00651821 	addu	v1,v1,a1
  40567c:	afa30008 	sw	v1,8(sp)
  405680:	8fa20000 	lw	v0,0(sp)
  405684:	8fa30004 	lw	v1,4(sp)
  405688:	8fa40008 	lw	a0,8(sp)
  40568c:	00431021 	addu	v0,v0,v1
  405690:	00441023 	subu	v0,v0,a0
  405694:	00451021 	addu	v0,v0,a1
  405698:	afa20004 	sw	v0,4(sp)
  40569c:	8fa30000 	lw	v1,0(sp)
  4056a0:	8fa20004 	lw	v0,4(sp)
  4056a4:	8fa40008 	lw	a0,8(sp)
  4056a8:	00621821 	addu	v1,v1,v0
  4056ac:	00641823 	subu	v1,v1,a0
  4056b0:	00651821 	addu	v1,v1,a1
  4056b4:	afa30000 	sw	v1,0(sp)
  4056b8:	8fa20000 	lw	v0,0(sp)
  4056bc:	8fa30004 	lw	v1,4(sp)
  4056c0:	8fa40008 	lw	a0,8(sp)
  4056c4:	00431021 	addu	v0,v0,v1
  4056c8:	00441023 	subu	v0,v0,a0
  4056cc:	00451021 	addu	v0,v0,a1
  4056d0:	afa20008 	sw	v0,8(sp)
  4056d4:	8fa30000 	lw	v1,0(sp)
  4056d8:	8fa20004 	lw	v0,4(sp)
  4056dc:	8fa40008 	lw	a0,8(sp)
  4056e0:	00621821 	addu	v1,v1,v0
  4056e4:	00641823 	subu	v1,v1,a0
  4056e8:	00651821 	addu	v1,v1,a1
  4056ec:	afa30004 	sw	v1,4(sp)
  4056f0:	8fa20000 	lw	v0,0(sp)
  4056f4:	8fa30004 	lw	v1,4(sp)
  4056f8:	8fa40008 	lw	a0,8(sp)
  4056fc:	00431021 	addu	v0,v0,v1
  405700:	00441023 	subu	v0,v0,a0
  405704:	00451021 	addu	v0,v0,a1
  405708:	afa20000 	sw	v0,0(sp)
  40570c:	8fa30000 	lw	v1,0(sp)
  405710:	8fa20004 	lw	v0,4(sp)
  405714:	8fa40008 	lw	a0,8(sp)
  405718:	00621821 	addu	v1,v1,v0
  40571c:	00641823 	subu	v1,v1,a0
  405720:	00651821 	addu	v1,v1,a1
  405724:	afa30004 	sw	v1,4(sp)
  405728:	8fa20000 	lw	v0,0(sp)
  40572c:	8fa30004 	lw	v1,4(sp)
  405730:	8fa40008 	lw	a0,8(sp)
  405734:	00431021 	addu	v0,v0,v1
  405738:	00441023 	subu	v0,v0,a0
  40573c:	00451021 	addu	v0,v0,a1
  405740:	afa20000 	sw	v0,0(sp)
  405744:	8fa30000 	lw	v1,0(sp)
  405748:	8fa20004 	lw	v0,4(sp)
  40574c:	8fa40008 	lw	a0,8(sp)
  405750:	00621821 	addu	v1,v1,v0
  405754:	00641823 	subu	v1,v1,a0
  405758:	00651821 	addu	v1,v1,a1
  40575c:	afa30008 	sw	v1,8(sp)
  405760:	8fa20000 	lw	v0,0(sp)
  405764:	8fa30004 	lw	v1,4(sp)
  405768:	8fa40008 	lw	a0,8(sp)
  40576c:	00431021 	addu	v0,v0,v1
  405770:	00441023 	subu	v0,v0,a0
  405774:	00451021 	addu	v0,v0,a1
  405778:	afa20004 	sw	v0,4(sp)
  40577c:	8fa30000 	lw	v1,0(sp)
  405780:	8fa20004 	lw	v0,4(sp)
  405784:	8fa40008 	lw	a0,8(sp)
  405788:	00621821 	addu	v1,v1,v0
  40578c:	00641823 	subu	v1,v1,a0
  405790:	00651821 	addu	v1,v1,a1
  405794:	afa30000 	sw	v1,0(sp)
  405798:	8fa20000 	lw	v0,0(sp)
  40579c:	8fa30004 	lw	v1,4(sp)
  4057a0:	8fa40008 	lw	a0,8(sp)
  4057a4:	00431021 	addu	v0,v0,v1
  4057a8:	00441023 	subu	v0,v0,a0
  4057ac:	00451021 	addu	v0,v0,a1
  4057b0:	afa20008 	sw	v0,8(sp)
  4057b4:	8fa30000 	lw	v1,0(sp)
  4057b8:	8fa20004 	lw	v0,4(sp)
  4057bc:	8fa40008 	lw	a0,8(sp)
  4057c0:	00621821 	addu	v1,v1,v0
  4057c4:	00641823 	subu	v1,v1,a0
  4057c8:	00651821 	addu	v1,v1,a1
  4057cc:	afa30004 	sw	v1,4(sp)
  4057d0:	8fa20000 	lw	v0,0(sp)
  4057d4:	8fa30004 	lw	v1,4(sp)
  4057d8:	8fa40008 	lw	a0,8(sp)
  4057dc:	00431021 	addu	v0,v0,v1
  4057e0:	00441023 	subu	v0,v0,a0
  4057e4:	00451021 	addu	v0,v0,a1
  4057e8:	afa20000 	sw	v0,0(sp)
  4057ec:	8fa30000 	lw	v1,0(sp)
  4057f0:	8fa20004 	lw	v0,4(sp)
  4057f4:	8fa40008 	lw	a0,8(sp)
  4057f8:	00621821 	addu	v1,v1,v0
  4057fc:	00641823 	subu	v1,v1,a0
  405800:	00651821 	addu	v1,v1,a1
  405804:	24a50001 	addiu	a1,a1,1
  405808:	28a20002 	slti	v0,a1,2
  40580c:	1440ff8e 	bnez	v0,405648 <func_13+0x440>
  405810:	afa30004 	sw	v1,4(sp)
  405814:	8fa20000 	lw	v0,0(sp)
  405818:	8fa30004 	lw	v1,4(sp)
  40581c:	8fa40008 	lw	a0,8(sp)
  405820:	00431021 	addu	v0,v0,v1
  405824:	00441021 	addu	v0,v0,a0
  405828:	03e00008 	jr	ra
  40582c:	27bd0010 	addiu	sp,sp,16

00405830 <func_14>:
  405830:	27bdfff0 	addiu	sp,sp,-16
  405834:	2402000a 	li	v0,10
  405838:	afa20000 	sw	v0,0(sp)
  40583c:	2403000b 	li	v1,11
  405840:	2402000c 	li	v0,12
  405844:	afa30004 	sw	v1,4(sp)
  405848:	00002821 	move	a1,zero
  40584c:	afa20008 	sw	v0,8(sp)
  405850:	8fa20000 	lw	v0,0(sp)
  405854:	8fa30004 	lw	v1,4(sp)
  405858:	8fa40008 	lw	a0,8(sp)
  40585c:	00431021 	addu	v0,v0,v1
  405860:	00441023 	subu	v0,v0,a0
  405864:	00451021 	addu	v0,v0,a1
  405868:	afa20000 	sw	v0,0(sp)
  40586c:	8fa30000 	lw	v1,0(sp)
  405870:	8fa20004 	lw	v0,4(sp)
  405874:	8fa40008 	lw	a0,8(sp)
  405878:	00621821 	addu	v1,v1,v0
  40587c:	00641823 	subu	v1,v1,a0
  405880:	00651821 	addu	v1,v1,a1
  405884:	afa30004 	sw	v1,4(sp)
  405888:	8fa20000 	lw	v0,0(sp)
  40588c:	8fa30004 	lw	v1,4(sp)
  405890:	8fa40008 	lw	a0,8(sp)
  405894:	00431021 	addu	v0,v0,v1
  405898:	00441023 	subu	v0,v0,a0
  40589c:	00451021 	addu	v0,v0,a1
  4058a0:	afa20008 	sw	v0,8(sp)
  4058a4:	8fa30000 	lw	v1,0(sp)
  4058a8:	8fa20004 	lw	v0,4(sp)
  4058ac:	8fa40008 	lw	a0,8(sp)
  4058b0:	00621821 	addu	v1,v1,v0
  4058b4:	00641823 	subu	v1,v1,a0
  4058b8:	00651821 	addu	v1,v1,a1
  4058bc:	afa30000 	sw	v1,0(sp)
  4058c0:	8fa20000 	lw	v0,0(sp)
  4058c4:	8fa30004 	lw	v1,4(sp)
  4058c8:	8fa40008 	lw	a0,8(sp)
  4058cc:	00431021 	addu	v0,v0,v1
  4058d0:	00441023 	subu	v0,v0,a0
  4058d4:	00451021 	addu	v0,v0,a1
  4058d8:	afa20004 	sw	v0,4(sp)
  4058dc:	8fa30000 	lw	v1,0(sp)
  4058e0:	8fa20004 	lw	v0,4(sp)
  4058e4:	8fa40008 	lw	a0,8(sp)
  4058e8:	00621821 	addu	v1,v1,v0
  4058ec:	00641823 	subu	v1,v1,a0
  4058f0:	00651821 	addu	v1,v1,a1
  4058f4:	afa30008 	sw	v1,8(sp)
  4058f8:	8fa20000 	lw	v0,0(sp)
  4058fc:	8fa30004 	lw	v1,4(sp)
  405900:	8fa40008 	lw	a0,8(sp)
  405904:	00431021 	addu	v0,v0,v1
  405908:	00441023 	subu	v0,v0,a0
  40590c:	00451021 	addu	v0,v0,a1
  405910:	afa20000 	sw	v0,0(sp)
  405914:	8fa30000 	lw	v1,0(sp)
  405918:	8fa20004 	lw	v0,4(sp)
  40591c:	8fa40008 	lw	a0,8(sp)
  405920:	00621821 	addu	v1,v1,v0
  405924:	00641823 	subu	v1,v1,a0
  405928:	00651821 	addu	v1,v1,a1
  40592c:	afa30004 	sw	v1,4(sp)
  405930:	8fa20000 	lw	v0,0(sp)
  405934:	8fa30004 	lw	v1,4(sp)
  405938:	8fa40008 	lw	a0,8(sp)
  40593c:	00431021 	addu	v0,v0,v1
  405940:	00441023 	subu	v0,v0,a0
  405944:	00451021 	addu	v0,v0,a1
  405948:	afa20008 	sw	v0,8(sp)
  40594c:	8fa30000 	lw	v1,0(sp)
  405950:	8fa20004 	lw	v0,4(sp)
  405954:	8fa40008 	lw	a0,8(sp)
  405958:	00621821 	addu	v1,v1,v0
  40595c:	00641823 	subu	v1,v1,a0
  405960:	00651821 	addu	v1,v1,a1
  405964:	afa30000 	sw	v1,0(sp)
  405968:	8fa20000 	lw	v0,0(sp)
  40596c:	8fa30004 	lw	v1,4(sp)
  405970:	8fa40008 	lw	a0,8(sp)
  405974:	00431021 	addu	v0,v0,v1
  405978:	00441023 	subu	v0,v0,a0
  40597c:	00451021 	addu	v0,v0,a1
  405980:	afa20004 	sw	v0,4(sp)
  405984:	8fa30000 	lw	v1,0(sp)
  405988:	8fa20004 	lw	v0,4(sp)
  40598c:	8fa40008 	lw	a0,8(sp)
  405990:	00621821 	addu	v1,v1,v0
  405994:	00641823 	subu	v1,v1,a0
  405998:	00651821 	addu	v1,v1,a1
  40599c:	afa30008 	sw	v1,8(sp)
  4059a0:	8fa20000 	lw	v0,0(sp)
  4059a4:	8fa30004 	lw	v1,4(sp)
  4059a8:	8fa40008 	lw	a0,8(sp)
  4059ac:	00431021 	addu	v0,v0,v1
  4059b0:	00441023 	subu	v0,v0,a0
  4059b4:	00451021 	addu	v0,v0,a1
  4059b8:	afa20000 	sw	v0,0(sp)
  4059bc:	8fa30000 	lw	v1,0(sp)
  4059c0:	8fa20004 	lw	v0,4(sp)
  4059c4:	8fa40008 	lw	a0,8(sp)
  4059c8:	00621821 	addu	v1,v1,v0
  4059cc:	00641823 	subu	v1,v1,a0
  4059d0:	00651821 	addu	v1,v1,a1
  4059d4:	afa30004 	sw	v1,4(sp)
  4059d8:	8fa20000 	lw	v0,0(sp)
  4059dc:	8fa30004 	lw	v1,4(sp)
  4059e0:	8fa40008 	lw	a0,8(sp)
  4059e4:	00431021 	addu	v0,v0,v1
  4059e8:	00441023 	subu	v0,v0,a0
  4059ec:	00451021 	addu	v0,v0,a1
  4059f0:	afa20008 	sw	v0,8(sp)
  4059f4:	8fa30000 	lw	v1,0(sp)
  4059f8:	8fa20004 	lw	v0,4(sp)
  4059fc:	8fa40008 	lw	a0,8(sp)
  405a00:	00621821 	addu	v1,v1,v0
  405a04:	00641823 	subu	v1,v1,a0
  405a08:	00651821 	addu	v1,v1,a1
  405a0c:	24a50001 	addiu	a1,a1,1
  405a10:	28a20002 	slti	v0,a1,2
  405a14:	1440ff8e 	bnez	v0,405850 <func_14+0x20>
  405a18:	afa30000 	sw	v1,0(sp)
  405a1c:	00002821 	move	a1,zero
  405a20:	8fa20000 	lw	v0,0(sp)
  405a24:	8fa30004 	lw	v1,4(sp)
  405a28:	8fa40008 	lw	a0,8(sp)
  405a2c:	00431021 	addu	v0,v0,v1
  405a30:	00441023 	subu	v0,v0,a0
  405a34:	00451021 	addu	v0,v0,a1
  405a38:	afa20004 	sw	v0,4(sp)
  405a3c:	8fa30000 	lw	v1,0(sp)
  405a40:	8fa20004 	lw	v0,4(sp)
  405a44:	8fa40008 	lw	a0,8(sp)
  405a48:	00621821 	addu	v1,v1,v0
  405a4c:	00641823 	subu	v1,v1,a0
  405a50:	00651821 	addu	v1,v1,a1
  405a54:	afa30000 	sw	v1,0(sp)
  405a58:	8fa20000 	lw	v0,0(sp)
  405a5c:	8fa30004 	lw	v1,4(sp)
  405a60:	8fa40008 	lw	a0,8(sp)
  405a64:	00431021 	addu	v0,v0,v1
  405a68:	00441023 	subu	v0,v0,a0
  405a6c:	00451021 	addu	v0,v0,a1
  405a70:	afa20008 	sw	v0,8(sp)
  405a74:	8fa30000 	lw	v1,0(sp)
  405a78:	8fa20004 	lw	v0,4(sp)
  405a7c:	8fa40008 	lw	a0,8(sp)
  405a80:	00621821 	addu	v1,v1,v0
  405a84:	00641823 	subu	v1,v1,a0
  405a88:	00651821 	addu	v1,v1,a1
  405a8c:	afa30004 	sw	v1,4(sp)
  405a90:	8fa20000 	lw	v0,0(sp)
  405a94:	8fa30004 	lw	v1,4(sp)
  405a98:	8fa40008 	lw	a0,8(sp)
  405a9c:	00431021 	addu	v0,v0,v1
  405aa0:	00441023 	subu	v0,v0,a0
  405aa4:	00451021 	addu	v0,v0,a1
  405aa8:	afa20004 	sw	v0,4(sp)
  405aac:	8fa30000 	lw	v1,0(sp)
  405ab0:	8fa20004 	lw	v0,4(sp)
  405ab4:	8fa40008 	lw	a0,8(sp)
  405ab8:	00621821 	addu	v1,v1,v0
  405abc:	00641823 	subu	v1,v1,a0
  405ac0:	00651821 	addu	v1,v1,a1
  405ac4:	afa30000 	sw	v1,0(sp)
  405ac8:	8fa20000 	lw	v0,0(sp)
  405acc:	8fa30004 	lw	v1,4(sp)
  405ad0:	8fa40008 	lw	a0,8(sp)
  405ad4:	00431021 	addu	v0,v0,v1
  405ad8:	00441023 	subu	v0,v0,a0
  405adc:	00451021 	addu	v0,v0,a1
  405ae0:	afa20008 	sw	v0,8(sp)
  405ae4:	8fa30000 	lw	v1,0(sp)
  405ae8:	8fa20004 	lw	v0,4(sp)
  405aec:	8fa40008 	lw	a0,8(sp)
  405af0:	00621821 	addu	v1,v1,v0
  405af4:	00641823 	subu	v1,v1,a0
  405af8:	00651821 	addu	v1,v1,a1
  405afc:	afa30004 	sw	v1,4(sp)
  405b00:	8fa20000 	lw	v0,0(sp)
  405b04:	8fa30004 	lw	v1,4(sp)
  405b08:	8fa40008 	lw	a0,8(sp)
  405b0c:	00431021 	addu	v0,v0,v1
  405b10:	00441023 	subu	v0,v0,a0
  405b14:	00451021 	addu	v0,v0,a1
  405b18:	afa20000 	sw	v0,0(sp)
  405b1c:	8fa30000 	lw	v1,0(sp)
  405b20:	8fa20004 	lw	v0,4(sp)
  405b24:	8fa40008 	lw	a0,8(sp)
  405b28:	00621821 	addu	v1,v1,v0
  405b2c:	00641823 	subu	v1,v1,a0
  405b30:	00651821 	addu	v1,v1,a1
  405b34:	afa30008 	sw	v1,8(sp)
  405b38:	8fa20000 	lw	v0,0(sp)
  405b3c:	8fa30004 	lw	v1,4(sp)
  405b40:	8fa40008 	lw	a0,8(sp)
  405b44:	00431021 	addu	v0,v0,v1
  405b48:	00441023 	subu	v0,v0,a0
  405b4c:	00451021 	addu	v0,v0,a1
  405b50:	afa20004 	sw	v0,4(sp)
  405b54:	8fa30000 	lw	v1,0(sp)
  405b58:	8fa20004 	lw	v0,4(sp)
  405b5c:	8fa40008 	lw	a0,8(sp)
  405b60:	00621821 	addu	v1,v1,v0
  405b64:	00641823 	subu	v1,v1,a0
  405b68:	00651821 	addu	v1,v1,a1
  405b6c:	afa30000 	sw	v1,0(sp)
  405b70:	8fa20000 	lw	v0,0(sp)
  405b74:	8fa30004 	lw	v1,4(sp)
  405b78:	8fa40008 	lw	a0,8(sp)
  405b7c:	00431021 	addu	v0,v0,v1
  405b80:	00441023 	subu	v0,v0,a0
  405b84:	00451021 	addu	v0,v0,a1
  405b88:	24a50001 	addiu	a1,a1,1
  405b8c:	28a30002 	slti	v1,a1,2
  405b90:	1460ffa3 	bnez	v1,405a20 <func_14+0x1f0>
  405b94:	afa20008 	sw	v0,8(sp)
  405b98:	00002821 	move	a1,zero
  405b9c:	8fa20000 	lw	v0,0(sp)
  405ba0:	8fa30004 	lw	v1,4(sp)
  405ba4:	8fa40008 	lw	a0,8(sp)
  405ba8:	00431021 	addu	v0,v0,v1
  405bac:	00441023 	subu	v0,v0,a0
  405bb0:	00451021 	addu	v0,v0,a1
  405bb4:	afa20008 	sw	v0,8(sp)
  405bb8:	8fa30000 	lw	v1,0(sp)
  405bbc:	8fa20004 	lw	v0,4(sp)
  405bc0:	8fa40008 	lw	a0,8(sp)
  405bc4:	00621821 	addu	v1,v1,v0
  405bc8:	00641823 	subu	v1,v1,a0
  405bcc:	00651821 	addu	v1,v1,a1
  405bd0:	afa30004 	sw	v1,4(sp)
  405bd4:	8fa20000 	lw	v0,0(sp)
  405bd8:	8fa30004 	lw	v1,4(sp)
  405bdc:	8fa40008 	lw	a0,8(sp)
  405be0:	00431021 	addu	v0,v0,v1
  405be4:	00441023 	subu	v0,v0,a0
  405be8:	00451021 	addu	v0,v0,a1
  405bec:	afa20000 	sw	v0,0(sp)
  405bf0:	8fa30000 	lw	v1,0(sp)
  405bf4:	8fa20004 	lw	v0,4(sp)
  405bf8:	8fa40008 	lw	a0,8(sp)
  405bfc:	00621821 	addu	v1,v1,v0
  405c00:	00641823 	subu	v1,v1,a0
  405c04:	00651821 	addu	v1,v1,a1
  405c08:	afa30008 	sw	v1,8(sp)
  405c0c:	8fa20000 	lw	v0,0(sp)
  405c10:	8fa30004 	lw	v1,4(sp)
  405c14:	8fa40008 	lw	a0,8(sp)
  405c18:	00431021 	addu	v0,v0,v1
  405c1c:	00441023 	subu	v0,v0,a0
  405c20:	00451021 	addu	v0,v0,a1
  405c24:	afa20004 	sw	v0,4(sp)
  405c28:	8fa30000 	lw	v1,0(sp)
  405c2c:	8fa20004 	lw	v0,4(sp)
  405c30:	8fa40008 	lw	a0,8(sp)
  405c34:	00621821 	addu	v1,v1,v0
  405c38:	00641823 	subu	v1,v1,a0
  405c3c:	00651821 	addu	v1,v1,a1
  405c40:	afa30000 	sw	v1,0(sp)
  405c44:	8fa20000 	lw	v0,0(sp)
  405c48:	8fa30004 	lw	v1,4(sp)
  405c4c:	8fa40008 	lw	a0,8(sp)
  405c50:	00431021 	addu	v0,v0,v1
  405c54:	00441023 	subu	v0,v0,a0
  405c58:	00451021 	addu	v0,v0,a1
  405c5c:	24a50001 	addiu	a1,a1,1
  405c60:	28a30002 	slti	v1,a1,2
  405c64:	1460ffcd 	bnez	v1,405b9c <func_14+0x36c>
  405c68:	afa20008 	sw	v0,8(sp)
  405c6c:	00002821 	move	a1,zero
  405c70:	8fa20000 	lw	v0,0(sp)
  405c74:	8fa30004 	lw	v1,4(sp)
  405c78:	8fa40008 	lw	a0,8(sp)
  405c7c:	00431021 	addu	v0,v0,v1
  405c80:	00441023 	subu	v0,v0,a0
  405c84:	00451021 	addu	v0,v0,a1
  405c88:	afa20000 	sw	v0,0(sp)
  405c8c:	8fa30000 	lw	v1,0(sp)
  405c90:	8fa20004 	lw	v0,4(sp)
  405c94:	8fa40008 	lw	a0,8(sp)
  405c98:	00621821 	addu	v1,v1,v0
  405c9c:	00641823 	subu	v1,v1,a0
  405ca0:	00651821 	addu	v1,v1,a1
  405ca4:	afa30008 	sw	v1,8(sp)
  405ca8:	8fa20000 	lw	v0,0(sp)
  405cac:	8fa30004 	lw	v1,4(sp)
  405cb0:	8fa40008 	lw	a0,8(sp)
  405cb4:	00431021 	addu	v0,v0,v1
  405cb8:	00441023 	subu	v0,v0,a0
  405cbc:	00451021 	addu	v0,v0,a1
  405cc0:	afa20004 	sw	v0,4(sp)
  405cc4:	8fa30000 	lw	v1,0(sp)
  405cc8:	8fa20004 	lw	v0,4(sp)
  405ccc:	8fa40008 	lw	a0,8(sp)
  405cd0:	00621821 	addu	v1,v1,v0
  405cd4:	00641823 	subu	v1,v1,a0
  405cd8:	00651821 	addu	v1,v1,a1
  405cdc:	afa30000 	sw	v1,0(sp)
  405ce0:	8fa20000 	lw	v0,0(sp)
  405ce4:	8fa30004 	lw	v1,4(sp)
  405ce8:	8fa40008 	lw	a0,8(sp)
  405cec:	00431021 	addu	v0,v0,v1
  405cf0:	00441023 	subu	v0,v0,a0
  405cf4:	00451021 	addu	v0,v0,a1
  405cf8:	afa20008 	sw	v0,8(sp)
  405cfc:	8fa30000 	lw	v1,0(sp)
  405d00:	8fa20004 	lw	v0,4(sp)
  405d04:	8fa40008 	lw	a0,8(sp)
  405d08:	00621821 	addu	v1,v1,v0
  405d0c:	00641823 	subu	v1,v1,a0
  405d10:	00651821 	addu	v1,v1,a1
  405d14:	afa30004 	sw	v1,4(sp)
  405d18:	8fa20000 	lw	v0,0(sp)
  405d1c:	8fa30004 	lw	v1,4(sp)
  405d20:	8fa40008 	lw	a0,8(sp)
  405d24:	00431021 	addu	v0,v0,v1
  405d28:	00441023 	subu	v0,v0,a0
  405d2c:	00451021 	addu	v0,v0,a1
  405d30:	afa20000 	sw	v0,0(sp)
  405d34:	8fa30000 	lw	v1,0(sp)
  405d38:	8fa20004 	lw	v0,4(sp)
  405d3c:	8fa40008 	lw	a0,8(sp)
  405d40:	00621821 	addu	v1,v1,v0
  405d44:	00641823 	subu	v1,v1,a0
  405d48:	00651821 	addu	v1,v1,a1
  405d4c:	afa30004 	sw	v1,4(sp)
  405d50:	8fa20000 	lw	v0,0(sp)
  405d54:	8fa30004 	lw	v1,4(sp)
  405d58:	8fa40008 	lw	a0,8(sp)
  405d5c:	00431021 	addu	v0,v0,v1
  405d60:	00441023 	subu	v0,v0,a0
  405d64:	00451021 	addu	v0,v0,a1
  405d68:	afa20000 	sw	v0,0(sp)
  405d6c:	8fa30000 	lw	v1,0(sp)
  405d70:	8fa20004 	lw	v0,4(sp)
  405d74:	8fa40008 	lw	a0,8(sp)
  405d78:	00621821 	addu	v1,v1,v0
  405d7c:	00641823 	subu	v1,v1,a0
  405d80:	00651821 	addu	v1,v1,a1
  405d84:	afa30008 	sw	v1,8(sp)
  405d88:	8fa20000 	lw	v0,0(sp)
  405d8c:	8fa30004 	lw	v1,4(sp)
  405d90:	8fa40008 	lw	a0,8(sp)
  405d94:	00431021 	addu	v0,v0,v1
  405d98:	00441023 	subu	v0,v0,a0
  405d9c:	00451021 	addu	v0,v0,a1
  405da0:	afa20004 	sw	v0,4(sp)
  405da4:	8fa30000 	lw	v1,0(sp)
  405da8:	8fa20004 	lw	v0,4(sp)
  405dac:	8fa40008 	lw	a0,8(sp)
  405db0:	00621821 	addu	v1,v1,v0
  405db4:	00641823 	subu	v1,v1,a0
  405db8:	00651821 	addu	v1,v1,a1
  405dbc:	afa30000 	sw	v1,0(sp)
  405dc0:	8fa20000 	lw	v0,0(sp)
  405dc4:	8fa30004 	lw	v1,4(sp)
  405dc8:	8fa40008 	lw	a0,8(sp)
  405dcc:	00431021 	addu	v0,v0,v1
  405dd0:	00441023 	subu	v0,v0,a0
  405dd4:	00451021 	addu	v0,v0,a1
  405dd8:	afa20008 	sw	v0,8(sp)
  405ddc:	8fa30000 	lw	v1,0(sp)
  405de0:	8fa20004 	lw	v0,4(sp)
  405de4:	8fa40008 	lw	a0,8(sp)
  405de8:	00621821 	addu	v1,v1,v0
  405dec:	00641823 	subu	v1,v1,a0
  405df0:	00651821 	addu	v1,v1,a1
  405df4:	afa30004 	sw	v1,4(sp)
  405df8:	8fa20000 	lw	v0,0(sp)
  405dfc:	8fa30004 	lw	v1,4(sp)
  405e00:	8fa40008 	lw	a0,8(sp)
  405e04:	00431021 	addu	v0,v0,v1
  405e08:	00441023 	subu	v0,v0,a0
  405e0c:	00451021 	addu	v0,v0,a1
  405e10:	afa20000 	sw	v0,0(sp)
  405e14:	8fa30000 	lw	v1,0(sp)
  405e18:	8fa20004 	lw	v0,4(sp)
  405e1c:	8fa40008 	lw	a0,8(sp)
  405e20:	00621821 	addu	v1,v1,v0
  405e24:	00641823 	subu	v1,v1,a0
  405e28:	00651821 	addu	v1,v1,a1
  405e2c:	24a50001 	addiu	a1,a1,1
  405e30:	28a20002 	slti	v0,a1,2
  405e34:	1440ff8e 	bnez	v0,405c70 <func_14+0x440>
  405e38:	afa30004 	sw	v1,4(sp)
  405e3c:	8fa20000 	lw	v0,0(sp)
  405e40:	8fa30004 	lw	v1,4(sp)
  405e44:	8fa40008 	lw	a0,8(sp)
  405e48:	00431021 	addu	v0,v0,v1
  405e4c:	00441021 	addu	v0,v0,a0
  405e50:	03e00008 	jr	ra
  405e54:	27bd0010 	addiu	sp,sp,16

00405e58 <func_15>:
  405e58:	27bdfff0 	addiu	sp,sp,-16
  405e5c:	2402000a 	li	v0,10
  405e60:	afa20000 	sw	v0,0(sp)
  405e64:	2403000b 	li	v1,11
  405e68:	2402000c 	li	v0,12
  405e6c:	afa30004 	sw	v1,4(sp)
  405e70:	00002821 	move	a1,zero
  405e74:	afa20008 	sw	v0,8(sp)
  405e78:	8fa20000 	lw	v0,0(sp)
  405e7c:	8fa30004 	lw	v1,4(sp)
  405e80:	8fa40008 	lw	a0,8(sp)
  405e84:	00431021 	addu	v0,v0,v1
  405e88:	00441023 	subu	v0,v0,a0
  405e8c:	00451021 	addu	v0,v0,a1
  405e90:	afa20000 	sw	v0,0(sp)
  405e94:	8fa30000 	lw	v1,0(sp)
  405e98:	8fa20004 	lw	v0,4(sp)
  405e9c:	8fa40008 	lw	a0,8(sp)
  405ea0:	00621821 	addu	v1,v1,v0
  405ea4:	00641823 	subu	v1,v1,a0
  405ea8:	00651821 	addu	v1,v1,a1
  405eac:	afa30004 	sw	v1,4(sp)
  405eb0:	8fa20000 	lw	v0,0(sp)
  405eb4:	8fa30004 	lw	v1,4(sp)
  405eb8:	8fa40008 	lw	a0,8(sp)
  405ebc:	00431021 	addu	v0,v0,v1
  405ec0:	00441023 	subu	v0,v0,a0
  405ec4:	00451021 	addu	v0,v0,a1
  405ec8:	afa20008 	sw	v0,8(sp)
  405ecc:	8fa30000 	lw	v1,0(sp)
  405ed0:	8fa20004 	lw	v0,4(sp)
  405ed4:	8fa40008 	lw	a0,8(sp)
  405ed8:	00621821 	addu	v1,v1,v0
  405edc:	00641823 	subu	v1,v1,a0
  405ee0:	00651821 	addu	v1,v1,a1
  405ee4:	afa30000 	sw	v1,0(sp)
  405ee8:	8fa20000 	lw	v0,0(sp)
  405eec:	8fa30004 	lw	v1,4(sp)
  405ef0:	8fa40008 	lw	a0,8(sp)
  405ef4:	00431021 	addu	v0,v0,v1
  405ef8:	00441023 	subu	v0,v0,a0
  405efc:	00451021 	addu	v0,v0,a1
  405f00:	afa20004 	sw	v0,4(sp)
  405f04:	8fa30000 	lw	v1,0(sp)
  405f08:	8fa20004 	lw	v0,4(sp)
  405f0c:	8fa40008 	lw	a0,8(sp)
  405f10:	00621821 	addu	v1,v1,v0
  405f14:	00641823 	subu	v1,v1,a0
  405f18:	00651821 	addu	v1,v1,a1
  405f1c:	afa30008 	sw	v1,8(sp)
  405f20:	8fa20000 	lw	v0,0(sp)
  405f24:	8fa30004 	lw	v1,4(sp)
  405f28:	8fa40008 	lw	a0,8(sp)
  405f2c:	00431021 	addu	v0,v0,v1
  405f30:	00441023 	subu	v0,v0,a0
  405f34:	00451021 	addu	v0,v0,a1
  405f38:	afa20000 	sw	v0,0(sp)
  405f3c:	8fa30000 	lw	v1,0(sp)
  405f40:	8fa20004 	lw	v0,4(sp)
  405f44:	8fa40008 	lw	a0,8(sp)
  405f48:	00621821 	addu	v1,v1,v0
  405f4c:	00641823 	subu	v1,v1,a0
  405f50:	00651821 	addu	v1,v1,a1
  405f54:	afa30004 	sw	v1,4(sp)
  405f58:	8fa20000 	lw	v0,0(sp)
  405f5c:	8fa30004 	lw	v1,4(sp)
  405f60:	8fa40008 	lw	a0,8(sp)
  405f64:	00431021 	addu	v0,v0,v1
  405f68:	00441023 	subu	v0,v0,a0
  405f6c:	00451021 	addu	v0,v0,a1
  405f70:	afa20008 	sw	v0,8(sp)
  405f74:	8fa30000 	lw	v1,0(sp)
  405f78:	8fa20004 	lw	v0,4(sp)
  405f7c:	8fa40008 	lw	a0,8(sp)
  405f80:	00621821 	addu	v1,v1,v0
  405f84:	00641823 	subu	v1,v1,a0
  405f88:	00651821 	addu	v1,v1,a1
  405f8c:	afa30000 	sw	v1,0(sp)
  405f90:	8fa20000 	lw	v0,0(sp)
  405f94:	8fa30004 	lw	v1,4(sp)
  405f98:	8fa40008 	lw	a0,8(sp)
  405f9c:	00431021 	addu	v0,v0,v1
  405fa0:	00441023 	subu	v0,v0,a0
  405fa4:	00451021 	addu	v0,v0,a1
  405fa8:	afa20004 	sw	v0,4(sp)
  405fac:	8fa30000 	lw	v1,0(sp)
  405fb0:	8fa20004 	lw	v0,4(sp)
  405fb4:	8fa40008 	lw	a0,8(sp)
  405fb8:	00621821 	addu	v1,v1,v0
  405fbc:	00641823 	subu	v1,v1,a0
  405fc0:	00651821 	addu	v1,v1,a1
  405fc4:	afa30008 	sw	v1,8(sp)
  405fc8:	8fa20000 	lw	v0,0(sp)
  405fcc:	8fa30004 	lw	v1,4(sp)
  405fd0:	8fa40008 	lw	a0,8(sp)
  405fd4:	00431021 	addu	v0,v0,v1
  405fd8:	00441023 	subu	v0,v0,a0
  405fdc:	00451021 	addu	v0,v0,a1
  405fe0:	afa20000 	sw	v0,0(sp)
  405fe4:	8fa30000 	lw	v1,0(sp)
  405fe8:	8fa20004 	lw	v0,4(sp)
  405fec:	8fa40008 	lw	a0,8(sp)
  405ff0:	00621821 	addu	v1,v1,v0
  405ff4:	00641823 	subu	v1,v1,a0
  405ff8:	00651821 	addu	v1,v1,a1
  405ffc:	afa30004 	sw	v1,4(sp)
  406000:	8fa20000 	lw	v0,0(sp)
  406004:	8fa30004 	lw	v1,4(sp)
  406008:	8fa40008 	lw	a0,8(sp)
  40600c:	00431021 	addu	v0,v0,v1
  406010:	00441023 	subu	v0,v0,a0
  406014:	00451021 	addu	v0,v0,a1
  406018:	afa20008 	sw	v0,8(sp)
  40601c:	8fa30000 	lw	v1,0(sp)
  406020:	8fa20004 	lw	v0,4(sp)
  406024:	8fa40008 	lw	a0,8(sp)
  406028:	00621821 	addu	v1,v1,v0
  40602c:	00641823 	subu	v1,v1,a0
  406030:	00651821 	addu	v1,v1,a1
  406034:	24a50001 	addiu	a1,a1,1
  406038:	28a20002 	slti	v0,a1,2
  40603c:	1440ff8e 	bnez	v0,405e78 <func_15+0x20>
  406040:	afa30000 	sw	v1,0(sp)
  406044:	00002821 	move	a1,zero
  406048:	8fa20000 	lw	v0,0(sp)
  40604c:	8fa30004 	lw	v1,4(sp)
  406050:	8fa40008 	lw	a0,8(sp)
  406054:	00431021 	addu	v0,v0,v1
  406058:	00441023 	subu	v0,v0,a0
  40605c:	00451021 	addu	v0,v0,a1
  406060:	afa20004 	sw	v0,4(sp)
  406064:	8fa30000 	lw	v1,0(sp)
  406068:	8fa20004 	lw	v0,4(sp)
  40606c:	8fa40008 	lw	a0,8(sp)
  406070:	00621821 	addu	v1,v1,v0
  406074:	00641823 	subu	v1,v1,a0
  406078:	00651821 	addu	v1,v1,a1
  40607c:	afa30000 	sw	v1,0(sp)
  406080:	8fa20000 	lw	v0,0(sp)
  406084:	8fa30004 	lw	v1,4(sp)
  406088:	8fa40008 	lw	a0,8(sp)
  40608c:	00431021 	addu	v0,v0,v1
  406090:	00441023 	subu	v0,v0,a0
  406094:	00451021 	addu	v0,v0,a1
  406098:	afa20008 	sw	v0,8(sp)
  40609c:	8fa30000 	lw	v1,0(sp)
  4060a0:	8fa20004 	lw	v0,4(sp)
  4060a4:	8fa40008 	lw	a0,8(sp)
  4060a8:	00621821 	addu	v1,v1,v0
  4060ac:	00641823 	subu	v1,v1,a0
  4060b0:	00651821 	addu	v1,v1,a1
  4060b4:	afa30004 	sw	v1,4(sp)
  4060b8:	8fa20000 	lw	v0,0(sp)
  4060bc:	8fa30004 	lw	v1,4(sp)
  4060c0:	8fa40008 	lw	a0,8(sp)
  4060c4:	00431021 	addu	v0,v0,v1
  4060c8:	00441023 	subu	v0,v0,a0
  4060cc:	00451021 	addu	v0,v0,a1
  4060d0:	afa20004 	sw	v0,4(sp)
  4060d4:	8fa30000 	lw	v1,0(sp)
  4060d8:	8fa20004 	lw	v0,4(sp)
  4060dc:	8fa40008 	lw	a0,8(sp)
  4060e0:	00621821 	addu	v1,v1,v0
  4060e4:	00641823 	subu	v1,v1,a0
  4060e8:	00651821 	addu	v1,v1,a1
  4060ec:	afa30000 	sw	v1,0(sp)
  4060f0:	8fa20000 	lw	v0,0(sp)
  4060f4:	8fa30004 	lw	v1,4(sp)
  4060f8:	8fa40008 	lw	a0,8(sp)
  4060fc:	00431021 	addu	v0,v0,v1
  406100:	00441023 	subu	v0,v0,a0
  406104:	00451021 	addu	v0,v0,a1
  406108:	afa20008 	sw	v0,8(sp)
  40610c:	8fa30000 	lw	v1,0(sp)
  406110:	8fa20004 	lw	v0,4(sp)
  406114:	8fa40008 	lw	a0,8(sp)
  406118:	00621821 	addu	v1,v1,v0
  40611c:	00641823 	subu	v1,v1,a0
  406120:	00651821 	addu	v1,v1,a1
  406124:	afa30004 	sw	v1,4(sp)
  406128:	8fa20000 	lw	v0,0(sp)
  40612c:	8fa30004 	lw	v1,4(sp)
  406130:	8fa40008 	lw	a0,8(sp)
  406134:	00431021 	addu	v0,v0,v1
  406138:	00441023 	subu	v0,v0,a0
  40613c:	00451021 	addu	v0,v0,a1
  406140:	afa20000 	sw	v0,0(sp)
  406144:	8fa30000 	lw	v1,0(sp)
  406148:	8fa20004 	lw	v0,4(sp)
  40614c:	8fa40008 	lw	a0,8(sp)
  406150:	00621821 	addu	v1,v1,v0
  406154:	00641823 	subu	v1,v1,a0
  406158:	00651821 	addu	v1,v1,a1
  40615c:	afa30008 	sw	v1,8(sp)
  406160:	8fa20000 	lw	v0,0(sp)
  406164:	8fa30004 	lw	v1,4(sp)
  406168:	8fa40008 	lw	a0,8(sp)
  40616c:	00431021 	addu	v0,v0,v1
  406170:	00441023 	subu	v0,v0,a0
  406174:	00451021 	addu	v0,v0,a1
  406178:	afa20004 	sw	v0,4(sp)
  40617c:	8fa30000 	lw	v1,0(sp)
  406180:	8fa20004 	lw	v0,4(sp)
  406184:	8fa40008 	lw	a0,8(sp)
  406188:	00621821 	addu	v1,v1,v0
  40618c:	00641823 	subu	v1,v1,a0
  406190:	00651821 	addu	v1,v1,a1
  406194:	afa30000 	sw	v1,0(sp)
  406198:	8fa20000 	lw	v0,0(sp)
  40619c:	8fa30004 	lw	v1,4(sp)
  4061a0:	8fa40008 	lw	a0,8(sp)
  4061a4:	00431021 	addu	v0,v0,v1
  4061a8:	00441023 	subu	v0,v0,a0
  4061ac:	00451021 	addu	v0,v0,a1
  4061b0:	24a50001 	addiu	a1,a1,1
  4061b4:	28a30002 	slti	v1,a1,2
  4061b8:	1460ffa3 	bnez	v1,406048 <func_15+0x1f0>
  4061bc:	afa20008 	sw	v0,8(sp)
  4061c0:	00002821 	move	a1,zero
  4061c4:	8fa20000 	lw	v0,0(sp)
  4061c8:	8fa30004 	lw	v1,4(sp)
  4061cc:	8fa40008 	lw	a0,8(sp)
  4061d0:	00431021 	addu	v0,v0,v1
  4061d4:	00441023 	subu	v0,v0,a0
  4061d8:	00451021 	addu	v0,v0,a1
  4061dc:	afa20008 	sw	v0,8(sp)
  4061e0:	8fa30000 	lw	v1,0(sp)
  4061e4:	8fa20004 	lw	v0,4(sp)
  4061e8:	8fa40008 	lw	a0,8(sp)
  4061ec:	00621821 	addu	v1,v1,v0
  4061f0:	00641823 	subu	v1,v1,a0
  4061f4:	00651821 	addu	v1,v1,a1
  4061f8:	afa30004 	sw	v1,4(sp)
  4061fc:	8fa20000 	lw	v0,0(sp)
  406200:	8fa30004 	lw	v1,4(sp)
  406204:	8fa40008 	lw	a0,8(sp)
  406208:	00431021 	addu	v0,v0,v1
  40620c:	00441023 	subu	v0,v0,a0
  406210:	00451021 	addu	v0,v0,a1
  406214:	afa20000 	sw	v0,0(sp)
  406218:	8fa30000 	lw	v1,0(sp)
  40621c:	8fa20004 	lw	v0,4(sp)
  406220:	8fa40008 	lw	a0,8(sp)
  406224:	00621821 	addu	v1,v1,v0
  406228:	00641823 	subu	v1,v1,a0
  40622c:	00651821 	addu	v1,v1,a1
  406230:	afa30008 	sw	v1,8(sp)
  406234:	8fa20000 	lw	v0,0(sp)
  406238:	8fa30004 	lw	v1,4(sp)
  40623c:	8fa40008 	lw	a0,8(sp)
  406240:	00431021 	addu	v0,v0,v1
  406244:	00441023 	subu	v0,v0,a0
  406248:	00451021 	addu	v0,v0,a1
  40624c:	afa20004 	sw	v0,4(sp)
  406250:	8fa30000 	lw	v1,0(sp)
  406254:	8fa20004 	lw	v0,4(sp)
  406258:	8fa40008 	lw	a0,8(sp)
  40625c:	00621821 	addu	v1,v1,v0
  406260:	00641823 	subu	v1,v1,a0
  406264:	00651821 	addu	v1,v1,a1
  406268:	afa30000 	sw	v1,0(sp)
  40626c:	8fa20000 	lw	v0,0(sp)
  406270:	8fa30004 	lw	v1,4(sp)
  406274:	8fa40008 	lw	a0,8(sp)
  406278:	00431021 	addu	v0,v0,v1
  40627c:	00441023 	subu	v0,v0,a0
  406280:	00451021 	addu	v0,v0,a1
  406284:	24a50001 	addiu	a1,a1,1
  406288:	28a30002 	slti	v1,a1,2
  40628c:	1460ffcd 	bnez	v1,4061c4 <func_15+0x36c>
  406290:	afa20008 	sw	v0,8(sp)
  406294:	00002821 	move	a1,zero
  406298:	8fa20000 	lw	v0,0(sp)
  40629c:	8fa30004 	lw	v1,4(sp)
  4062a0:	8fa40008 	lw	a0,8(sp)
  4062a4:	00431021 	addu	v0,v0,v1
  4062a8:	00441023 	subu	v0,v0,a0
  4062ac:	00451021 	addu	v0,v0,a1
  4062b0:	afa20000 	sw	v0,0(sp)
  4062b4:	8fa30000 	lw	v1,0(sp)
  4062b8:	8fa20004 	lw	v0,4(sp)
  4062bc:	8fa40008 	lw	a0,8(sp)
  4062c0:	00621821 	addu	v1,v1,v0
  4062c4:	00641823 	subu	v1,v1,a0
  4062c8:	00651821 	addu	v1,v1,a1
  4062cc:	afa30008 	sw	v1,8(sp)
  4062d0:	8fa20000 	lw	v0,0(sp)
  4062d4:	8fa30004 	lw	v1,4(sp)
  4062d8:	8fa40008 	lw	a0,8(sp)
  4062dc:	00431021 	addu	v0,v0,v1
  4062e0:	00441023 	subu	v0,v0,a0
  4062e4:	00451021 	addu	v0,v0,a1
  4062e8:	afa20004 	sw	v0,4(sp)
  4062ec:	8fa30000 	lw	v1,0(sp)
  4062f0:	8fa20004 	lw	v0,4(sp)
  4062f4:	8fa40008 	lw	a0,8(sp)
  4062f8:	00621821 	addu	v1,v1,v0
  4062fc:	00641823 	subu	v1,v1,a0
  406300:	00651821 	addu	v1,v1,a1
  406304:	afa30000 	sw	v1,0(sp)
  406308:	8fa20000 	lw	v0,0(sp)
  40630c:	8fa30004 	lw	v1,4(sp)
  406310:	8fa40008 	lw	a0,8(sp)
  406314:	00431021 	addu	v0,v0,v1
  406318:	00441023 	subu	v0,v0,a0
  40631c:	00451021 	addu	v0,v0,a1
  406320:	afa20008 	sw	v0,8(sp)
  406324:	8fa30000 	lw	v1,0(sp)
  406328:	8fa20004 	lw	v0,4(sp)
  40632c:	8fa40008 	lw	a0,8(sp)
  406330:	00621821 	addu	v1,v1,v0
  406334:	00641823 	subu	v1,v1,a0
  406338:	00651821 	addu	v1,v1,a1
  40633c:	afa30004 	sw	v1,4(sp)
  406340:	8fa20000 	lw	v0,0(sp)
  406344:	8fa30004 	lw	v1,4(sp)
  406348:	8fa40008 	lw	a0,8(sp)
  40634c:	00431021 	addu	v0,v0,v1
  406350:	00441023 	subu	v0,v0,a0
  406354:	00451021 	addu	v0,v0,a1
  406358:	afa20000 	sw	v0,0(sp)
  40635c:	8fa30000 	lw	v1,0(sp)
  406360:	8fa20004 	lw	v0,4(sp)
  406364:	8fa40008 	lw	a0,8(sp)
  406368:	00621821 	addu	v1,v1,v0
  40636c:	00641823 	subu	v1,v1,a0
  406370:	00651821 	addu	v1,v1,a1
  406374:	afa30004 	sw	v1,4(sp)
  406378:	8fa20000 	lw	v0,0(sp)
  40637c:	8fa30004 	lw	v1,4(sp)
  406380:	8fa40008 	lw	a0,8(sp)
  406384:	00431021 	addu	v0,v0,v1
  406388:	00441023 	subu	v0,v0,a0
  40638c:	00451021 	addu	v0,v0,a1
  406390:	afa20000 	sw	v0,0(sp)
  406394:	8fa30000 	lw	v1,0(sp)
  406398:	8fa20004 	lw	v0,4(sp)
  40639c:	8fa40008 	lw	a0,8(sp)
  4063a0:	00621821 	addu	v1,v1,v0
  4063a4:	00641823 	subu	v1,v1,a0
  4063a8:	00651821 	addu	v1,v1,a1
  4063ac:	afa30008 	sw	v1,8(sp)
  4063b0:	8fa20000 	lw	v0,0(sp)
  4063b4:	8fa30004 	lw	v1,4(sp)
  4063b8:	8fa40008 	lw	a0,8(sp)
  4063bc:	00431021 	addu	v0,v0,v1
  4063c0:	00441023 	subu	v0,v0,a0
  4063c4:	00451021 	addu	v0,v0,a1
  4063c8:	afa20004 	sw	v0,4(sp)
  4063cc:	8fa30000 	lw	v1,0(sp)
  4063d0:	8fa20004 	lw	v0,4(sp)
  4063d4:	8fa40008 	lw	a0,8(sp)
  4063d8:	00621821 	addu	v1,v1,v0
  4063dc:	00641823 	subu	v1,v1,a0
  4063e0:	00651821 	addu	v1,v1,a1
  4063e4:	afa30000 	sw	v1,0(sp)
  4063e8:	8fa20000 	lw	v0,0(sp)
  4063ec:	8fa30004 	lw	v1,4(sp)
  4063f0:	8fa40008 	lw	a0,8(sp)
  4063f4:	00431021 	addu	v0,v0,v1
  4063f8:	00441023 	subu	v0,v0,a0
  4063fc:	00451021 	addu	v0,v0,a1
  406400:	afa20008 	sw	v0,8(sp)
  406404:	8fa30000 	lw	v1,0(sp)
  406408:	8fa20004 	lw	v0,4(sp)
  40640c:	8fa40008 	lw	a0,8(sp)
  406410:	00621821 	addu	v1,v1,v0
  406414:	00641823 	subu	v1,v1,a0
  406418:	00651821 	addu	v1,v1,a1
  40641c:	afa30004 	sw	v1,4(sp)
  406420:	8fa20000 	lw	v0,0(sp)
  406424:	8fa30004 	lw	v1,4(sp)
  406428:	8fa40008 	lw	a0,8(sp)
  40642c:	00431021 	addu	v0,v0,v1
  406430:	00441023 	subu	v0,v0,a0
  406434:	00451021 	addu	v0,v0,a1
  406438:	afa20000 	sw	v0,0(sp)
  40643c:	8fa30000 	lw	v1,0(sp)
  406440:	8fa20004 	lw	v0,4(sp)
  406444:	8fa40008 	lw	a0,8(sp)
  406448:	00621821 	addu	v1,v1,v0
  40644c:	00641823 	subu	v1,v1,a0
  406450:	00651821 	addu	v1,v1,a1
  406454:	24a50001 	addiu	a1,a1,1
  406458:	28a20002 	slti	v0,a1,2
  40645c:	1440ff8e 	bnez	v0,406298 <func_15+0x440>
  406460:	afa30004 	sw	v1,4(sp)
  406464:	8fa20000 	lw	v0,0(sp)
  406468:	8fa30004 	lw	v1,4(sp)
  40646c:	8fa40008 	lw	a0,8(sp)
  406470:	00431021 	addu	v0,v0,v1
  406474:	00441021 	addu	v0,v0,a0
  406478:	03e00008 	jr	ra
  40647c:	27bd0010 	addiu	sp,sp,16

00406480 <func_16>:
  406480:	27bdfff0 	addiu	sp,sp,-16
  406484:	2402000a 	li	v0,10
  406488:	afa20000 	sw	v0,0(sp)
  40648c:	2403000b 	li	v1,11
  406490:	2402000c 	li	v0,12
  406494:	afa30004 	sw	v1,4(sp)
  406498:	00002821 	move	a1,zero
  40649c:	afa20008 	sw	v0,8(sp)
  4064a0:	8fa20000 	lw	v0,0(sp)
  4064a4:	8fa30004 	lw	v1,4(sp)
  4064a8:	8fa40008 	lw	a0,8(sp)
  4064ac:	00431021 	addu	v0,v0,v1
  4064b0:	00441023 	subu	v0,v0,a0
  4064b4:	00451021 	addu	v0,v0,a1
  4064b8:	afa20000 	sw	v0,0(sp)
  4064bc:	8fa30000 	lw	v1,0(sp)
  4064c0:	8fa20004 	lw	v0,4(sp)
  4064c4:	8fa40008 	lw	a0,8(sp)
  4064c8:	00621821 	addu	v1,v1,v0
  4064cc:	00641823 	subu	v1,v1,a0
  4064d0:	00651821 	addu	v1,v1,a1
  4064d4:	afa30004 	sw	v1,4(sp)
  4064d8:	8fa20000 	lw	v0,0(sp)
  4064dc:	8fa30004 	lw	v1,4(sp)
  4064e0:	8fa40008 	lw	a0,8(sp)
  4064e4:	00431021 	addu	v0,v0,v1
  4064e8:	00441023 	subu	v0,v0,a0
  4064ec:	00451021 	addu	v0,v0,a1
  4064f0:	afa20008 	sw	v0,8(sp)
  4064f4:	8fa30000 	lw	v1,0(sp)
  4064f8:	8fa20004 	lw	v0,4(sp)
  4064fc:	8fa40008 	lw	a0,8(sp)
  406500:	00621821 	addu	v1,v1,v0
  406504:	00641823 	subu	v1,v1,a0
  406508:	00651821 	addu	v1,v1,a1
  40650c:	afa30000 	sw	v1,0(sp)
  406510:	8fa20000 	lw	v0,0(sp)
  406514:	8fa30004 	lw	v1,4(sp)
  406518:	8fa40008 	lw	a0,8(sp)
  40651c:	00431021 	addu	v0,v0,v1
  406520:	00441023 	subu	v0,v0,a0
  406524:	00451021 	addu	v0,v0,a1
  406528:	afa20004 	sw	v0,4(sp)
  40652c:	8fa30000 	lw	v1,0(sp)
  406530:	8fa20004 	lw	v0,4(sp)
  406534:	8fa40008 	lw	a0,8(sp)
  406538:	00621821 	addu	v1,v1,v0
  40653c:	00641823 	subu	v1,v1,a0
  406540:	00651821 	addu	v1,v1,a1
  406544:	afa30008 	sw	v1,8(sp)
  406548:	8fa20000 	lw	v0,0(sp)
  40654c:	8fa30004 	lw	v1,4(sp)
  406550:	8fa40008 	lw	a0,8(sp)
  406554:	00431021 	addu	v0,v0,v1
  406558:	00441023 	subu	v0,v0,a0
  40655c:	00451021 	addu	v0,v0,a1
  406560:	afa20000 	sw	v0,0(sp)
  406564:	8fa30000 	lw	v1,0(sp)
  406568:	8fa20004 	lw	v0,4(sp)
  40656c:	8fa40008 	lw	a0,8(sp)
  406570:	00621821 	addu	v1,v1,v0
  406574:	00641823 	subu	v1,v1,a0
  406578:	00651821 	addu	v1,v1,a1
  40657c:	afa30004 	sw	v1,4(sp)
  406580:	8fa20000 	lw	v0,0(sp)
  406584:	8fa30004 	lw	v1,4(sp)
  406588:	8fa40008 	lw	a0,8(sp)
  40658c:	00431021 	addu	v0,v0,v1
  406590:	00441023 	subu	v0,v0,a0
  406594:	00451021 	addu	v0,v0,a1
  406598:	afa20008 	sw	v0,8(sp)
  40659c:	8fa30000 	lw	v1,0(sp)
  4065a0:	8fa20004 	lw	v0,4(sp)
  4065a4:	8fa40008 	lw	a0,8(sp)
  4065a8:	00621821 	addu	v1,v1,v0
  4065ac:	00641823 	subu	v1,v1,a0
  4065b0:	00651821 	addu	v1,v1,a1
  4065b4:	afa30000 	sw	v1,0(sp)
  4065b8:	8fa20000 	lw	v0,0(sp)
  4065bc:	8fa30004 	lw	v1,4(sp)
  4065c0:	8fa40008 	lw	a0,8(sp)
  4065c4:	00431021 	addu	v0,v0,v1
  4065c8:	00441023 	subu	v0,v0,a0
  4065cc:	00451021 	addu	v0,v0,a1
  4065d0:	afa20004 	sw	v0,4(sp)
  4065d4:	8fa30000 	lw	v1,0(sp)
  4065d8:	8fa20004 	lw	v0,4(sp)
  4065dc:	8fa40008 	lw	a0,8(sp)
  4065e0:	00621821 	addu	v1,v1,v0
  4065e4:	00641823 	subu	v1,v1,a0
  4065e8:	00651821 	addu	v1,v1,a1
  4065ec:	afa30008 	sw	v1,8(sp)
  4065f0:	8fa20000 	lw	v0,0(sp)
  4065f4:	8fa30004 	lw	v1,4(sp)
  4065f8:	8fa40008 	lw	a0,8(sp)
  4065fc:	00431021 	addu	v0,v0,v1
  406600:	00441023 	subu	v0,v0,a0
  406604:	00451021 	addu	v0,v0,a1
  406608:	afa20000 	sw	v0,0(sp)
  40660c:	8fa30000 	lw	v1,0(sp)
  406610:	8fa20004 	lw	v0,4(sp)
  406614:	8fa40008 	lw	a0,8(sp)
  406618:	00621821 	addu	v1,v1,v0
  40661c:	00641823 	subu	v1,v1,a0
  406620:	00651821 	addu	v1,v1,a1
  406624:	afa30004 	sw	v1,4(sp)
  406628:	8fa20000 	lw	v0,0(sp)
  40662c:	8fa30004 	lw	v1,4(sp)
  406630:	8fa40008 	lw	a0,8(sp)
  406634:	00431021 	addu	v0,v0,v1
  406638:	00441023 	subu	v0,v0,a0
  40663c:	00451021 	addu	v0,v0,a1
  406640:	afa20008 	sw	v0,8(sp)
  406644:	8fa30000 	lw	v1,0(sp)
  406648:	8fa20004 	lw	v0,4(sp)
  40664c:	8fa40008 	lw	a0,8(sp)
  406650:	00621821 	addu	v1,v1,v0
  406654:	00641823 	subu	v1,v1,a0
  406658:	00651821 	addu	v1,v1,a1
  40665c:	24a50001 	addiu	a1,a1,1
  406660:	28a20002 	slti	v0,a1,2
  406664:	1440ff8e 	bnez	v0,4064a0 <func_16+0x20>
  406668:	afa30000 	sw	v1,0(sp)
  40666c:	00002821 	move	a1,zero
  406670:	8fa20000 	lw	v0,0(sp)
  406674:	8fa30004 	lw	v1,4(sp)
  406678:	8fa40008 	lw	a0,8(sp)
  40667c:	00431021 	addu	v0,v0,v1
  406680:	00441023 	subu	v0,v0,a0
  406684:	00451021 	addu	v0,v0,a1
  406688:	afa20004 	sw	v0,4(sp)
  40668c:	8fa30000 	lw	v1,0(sp)
  406690:	8fa20004 	lw	v0,4(sp)
  406694:	8fa40008 	lw	a0,8(sp)
  406698:	00621821 	addu	v1,v1,v0
  40669c:	00641823 	subu	v1,v1,a0
  4066a0:	00651821 	addu	v1,v1,a1
  4066a4:	afa30000 	sw	v1,0(sp)
  4066a8:	8fa20000 	lw	v0,0(sp)
  4066ac:	8fa30004 	lw	v1,4(sp)
  4066b0:	8fa40008 	lw	a0,8(sp)
  4066b4:	00431021 	addu	v0,v0,v1
  4066b8:	00441023 	subu	v0,v0,a0
  4066bc:	00451021 	addu	v0,v0,a1
  4066c0:	afa20008 	sw	v0,8(sp)
  4066c4:	8fa30000 	lw	v1,0(sp)
  4066c8:	8fa20004 	lw	v0,4(sp)
  4066cc:	8fa40008 	lw	a0,8(sp)
  4066d0:	00621821 	addu	v1,v1,v0
  4066d4:	00641823 	subu	v1,v1,a0
  4066d8:	00651821 	addu	v1,v1,a1
  4066dc:	afa30004 	sw	v1,4(sp)
  4066e0:	8fa20000 	lw	v0,0(sp)
  4066e4:	8fa30004 	lw	v1,4(sp)
  4066e8:	8fa40008 	lw	a0,8(sp)
  4066ec:	00431021 	addu	v0,v0,v1
  4066f0:	00441023 	subu	v0,v0,a0
  4066f4:	00451021 	addu	v0,v0,a1
  4066f8:	afa20004 	sw	v0,4(sp)
  4066fc:	8fa30000 	lw	v1,0(sp)
  406700:	8fa20004 	lw	v0,4(sp)
  406704:	8fa40008 	lw	a0,8(sp)
  406708:	00621821 	addu	v1,v1,v0
  40670c:	00641823 	subu	v1,v1,a0
  406710:	00651821 	addu	v1,v1,a1
  406714:	afa30000 	sw	v1,0(sp)
  406718:	8fa20000 	lw	v0,0(sp)
  40671c:	8fa30004 	lw	v1,4(sp)
  406720:	8fa40008 	lw	a0,8(sp)
  406724:	00431021 	addu	v0,v0,v1
  406728:	00441023 	subu	v0,v0,a0
  40672c:	00451021 	addu	v0,v0,a1
  406730:	afa20008 	sw	v0,8(sp)
  406734:	8fa30000 	lw	v1,0(sp)
  406738:	8fa20004 	lw	v0,4(sp)
  40673c:	8fa40008 	lw	a0,8(sp)
  406740:	00621821 	addu	v1,v1,v0
  406744:	00641823 	subu	v1,v1,a0
  406748:	00651821 	addu	v1,v1,a1
  40674c:	afa30004 	sw	v1,4(sp)
  406750:	8fa20000 	lw	v0,0(sp)
  406754:	8fa30004 	lw	v1,4(sp)
  406758:	8fa40008 	lw	a0,8(sp)
  40675c:	00431021 	addu	v0,v0,v1
  406760:	00441023 	subu	v0,v0,a0
  406764:	00451021 	addu	v0,v0,a1
  406768:	afa20000 	sw	v0,0(sp)
  40676c:	8fa30000 	lw	v1,0(sp)
  406770:	8fa20004 	lw	v0,4(sp)
  406774:	8fa40008 	lw	a0,8(sp)
  406778:	00621821 	addu	v1,v1,v0
  40677c:	00641823 	subu	v1,v1,a0
  406780:	00651821 	addu	v1,v1,a1
  406784:	afa30008 	sw	v1,8(sp)
  406788:	8fa20000 	lw	v0,0(sp)
  40678c:	8fa30004 	lw	v1,4(sp)
  406790:	8fa40008 	lw	a0,8(sp)
  406794:	00431021 	addu	v0,v0,v1
  406798:	00441023 	subu	v0,v0,a0
  40679c:	00451021 	addu	v0,v0,a1
  4067a0:	afa20004 	sw	v0,4(sp)
  4067a4:	8fa30000 	lw	v1,0(sp)
  4067a8:	8fa20004 	lw	v0,4(sp)
  4067ac:	8fa40008 	lw	a0,8(sp)
  4067b0:	00621821 	addu	v1,v1,v0
  4067b4:	00641823 	subu	v1,v1,a0
  4067b8:	00651821 	addu	v1,v1,a1
  4067bc:	afa30000 	sw	v1,0(sp)
  4067c0:	8fa20000 	lw	v0,0(sp)
  4067c4:	8fa30004 	lw	v1,4(sp)
  4067c8:	8fa40008 	lw	a0,8(sp)
  4067cc:	00431021 	addu	v0,v0,v1
  4067d0:	00441023 	subu	v0,v0,a0
  4067d4:	00451021 	addu	v0,v0,a1
  4067d8:	24a50001 	addiu	a1,a1,1
  4067dc:	28a30002 	slti	v1,a1,2
  4067e0:	1460ffa3 	bnez	v1,406670 <func_16+0x1f0>
  4067e4:	afa20008 	sw	v0,8(sp)
  4067e8:	00002821 	move	a1,zero
  4067ec:	8fa20000 	lw	v0,0(sp)
  4067f0:	8fa30004 	lw	v1,4(sp)
  4067f4:	8fa40008 	lw	a0,8(sp)
  4067f8:	00431021 	addu	v0,v0,v1
  4067fc:	00441023 	subu	v0,v0,a0
  406800:	00451021 	addu	v0,v0,a1
  406804:	afa20008 	sw	v0,8(sp)
  406808:	8fa30000 	lw	v1,0(sp)
  40680c:	8fa20004 	lw	v0,4(sp)
  406810:	8fa40008 	lw	a0,8(sp)
  406814:	00621821 	addu	v1,v1,v0
  406818:	00641823 	subu	v1,v1,a0
  40681c:	00651821 	addu	v1,v1,a1
  406820:	afa30004 	sw	v1,4(sp)
  406824:	8fa20000 	lw	v0,0(sp)
  406828:	8fa30004 	lw	v1,4(sp)
  40682c:	8fa40008 	lw	a0,8(sp)
  406830:	00431021 	addu	v0,v0,v1
  406834:	00441023 	subu	v0,v0,a0
  406838:	00451021 	addu	v0,v0,a1
  40683c:	afa20000 	sw	v0,0(sp)
  406840:	8fa30000 	lw	v1,0(sp)
  406844:	8fa20004 	lw	v0,4(sp)
  406848:	8fa40008 	lw	a0,8(sp)
  40684c:	00621821 	addu	v1,v1,v0
  406850:	00641823 	subu	v1,v1,a0
  406854:	00651821 	addu	v1,v1,a1
  406858:	afa30008 	sw	v1,8(sp)
  40685c:	8fa20000 	lw	v0,0(sp)
  406860:	8fa30004 	lw	v1,4(sp)
  406864:	8fa40008 	lw	a0,8(sp)
  406868:	00431021 	addu	v0,v0,v1
  40686c:	00441023 	subu	v0,v0,a0
  406870:	00451021 	addu	v0,v0,a1
  406874:	afa20004 	sw	v0,4(sp)
  406878:	8fa30000 	lw	v1,0(sp)
  40687c:	8fa20004 	lw	v0,4(sp)
  406880:	8fa40008 	lw	a0,8(sp)
  406884:	00621821 	addu	v1,v1,v0
  406888:	00641823 	subu	v1,v1,a0
  40688c:	00651821 	addu	v1,v1,a1
  406890:	afa30000 	sw	v1,0(sp)
  406894:	8fa20000 	lw	v0,0(sp)
  406898:	8fa30004 	lw	v1,4(sp)
  40689c:	8fa40008 	lw	a0,8(sp)
  4068a0:	00431021 	addu	v0,v0,v1
  4068a4:	00441023 	subu	v0,v0,a0
  4068a8:	00451021 	addu	v0,v0,a1
  4068ac:	24a50001 	addiu	a1,a1,1
  4068b0:	28a30002 	slti	v1,a1,2
  4068b4:	1460ffcd 	bnez	v1,4067ec <func_16+0x36c>
  4068b8:	afa20008 	sw	v0,8(sp)
  4068bc:	00002821 	move	a1,zero
  4068c0:	8fa20000 	lw	v0,0(sp)
  4068c4:	8fa30004 	lw	v1,4(sp)
  4068c8:	8fa40008 	lw	a0,8(sp)
  4068cc:	00431021 	addu	v0,v0,v1
  4068d0:	00441023 	subu	v0,v0,a0
  4068d4:	00451021 	addu	v0,v0,a1
  4068d8:	afa20000 	sw	v0,0(sp)
  4068dc:	8fa30000 	lw	v1,0(sp)
  4068e0:	8fa20004 	lw	v0,4(sp)
  4068e4:	8fa40008 	lw	a0,8(sp)
  4068e8:	00621821 	addu	v1,v1,v0
  4068ec:	00641823 	subu	v1,v1,a0
  4068f0:	00651821 	addu	v1,v1,a1
  4068f4:	afa30008 	sw	v1,8(sp)
  4068f8:	8fa20000 	lw	v0,0(sp)
  4068fc:	8fa30004 	lw	v1,4(sp)
  406900:	8fa40008 	lw	a0,8(sp)
  406904:	00431021 	addu	v0,v0,v1
  406908:	00441023 	subu	v0,v0,a0
  40690c:	00451021 	addu	v0,v0,a1
  406910:	afa20004 	sw	v0,4(sp)
  406914:	8fa30000 	lw	v1,0(sp)
  406918:	8fa20004 	lw	v0,4(sp)
  40691c:	8fa40008 	lw	a0,8(sp)
  406920:	00621821 	addu	v1,v1,v0
  406924:	00641823 	subu	v1,v1,a0
  406928:	00651821 	addu	v1,v1,a1
  40692c:	afa30000 	sw	v1,0(sp)
  406930:	8fa20000 	lw	v0,0(sp)
  406934:	8fa30004 	lw	v1,4(sp)
  406938:	8fa40008 	lw	a0,8(sp)
  40693c:	00431021 	addu	v0,v0,v1
  406940:	00441023 	subu	v0,v0,a0
  406944:	00451021 	addu	v0,v0,a1
  406948:	afa20008 	sw	v0,8(sp)
  40694c:	8fa30000 	lw	v1,0(sp)
  406950:	8fa20004 	lw	v0,4(sp)
  406954:	8fa40008 	lw	a0,8(sp)
  406958:	00621821 	addu	v1,v1,v0
  40695c:	00641823 	subu	v1,v1,a0
  406960:	00651821 	addu	v1,v1,a1
  406964:	afa30004 	sw	v1,4(sp)
  406968:	8fa20000 	lw	v0,0(sp)
  40696c:	8fa30004 	lw	v1,4(sp)
  406970:	8fa40008 	lw	a0,8(sp)
  406974:	00431021 	addu	v0,v0,v1
  406978:	00441023 	subu	v0,v0,a0
  40697c:	00451021 	addu	v0,v0,a1
  406980:	afa20000 	sw	v0,0(sp)
  406984:	8fa30000 	lw	v1,0(sp)
  406988:	8fa20004 	lw	v0,4(sp)
  40698c:	8fa40008 	lw	a0,8(sp)
  406990:	00621821 	addu	v1,v1,v0
  406994:	00641823 	subu	v1,v1,a0
  406998:	00651821 	addu	v1,v1,a1
  40699c:	afa30004 	sw	v1,4(sp)
  4069a0:	8fa20000 	lw	v0,0(sp)
  4069a4:	8fa30004 	lw	v1,4(sp)
  4069a8:	8fa40008 	lw	a0,8(sp)
  4069ac:	00431021 	addu	v0,v0,v1
  4069b0:	00441023 	subu	v0,v0,a0
  4069b4:	00451021 	addu	v0,v0,a1
  4069b8:	afa20000 	sw	v0,0(sp)
  4069bc:	8fa30000 	lw	v1,0(sp)
  4069c0:	8fa20004 	lw	v0,4(sp)
  4069c4:	8fa40008 	lw	a0,8(sp)
  4069c8:	00621821 	addu	v1,v1,v0
  4069cc:	00641823 	subu	v1,v1,a0
  4069d0:	00651821 	addu	v1,v1,a1
  4069d4:	afa30008 	sw	v1,8(sp)
  4069d8:	8fa20000 	lw	v0,0(sp)
  4069dc:	8fa30004 	lw	v1,4(sp)
  4069e0:	8fa40008 	lw	a0,8(sp)
  4069e4:	00431021 	addu	v0,v0,v1
  4069e8:	00441023 	subu	v0,v0,a0
  4069ec:	00451021 	addu	v0,v0,a1
  4069f0:	afa20004 	sw	v0,4(sp)
  4069f4:	8fa30000 	lw	v1,0(sp)
  4069f8:	8fa20004 	lw	v0,4(sp)
  4069fc:	8fa40008 	lw	a0,8(sp)
  406a00:	00621821 	addu	v1,v1,v0
  406a04:	00641823 	subu	v1,v1,a0
  406a08:	00651821 	addu	v1,v1,a1
  406a0c:	afa30000 	sw	v1,0(sp)
  406a10:	8fa20000 	lw	v0,0(sp)
  406a14:	8fa30004 	lw	v1,4(sp)
  406a18:	8fa40008 	lw	a0,8(sp)
  406a1c:	00431021 	addu	v0,v0,v1
  406a20:	00441023 	subu	v0,v0,a0
  406a24:	00451021 	addu	v0,v0,a1
  406a28:	afa20008 	sw	v0,8(sp)
  406a2c:	8fa30000 	lw	v1,0(sp)
  406a30:	8fa20004 	lw	v0,4(sp)
  406a34:	8fa40008 	lw	a0,8(sp)
  406a38:	00621821 	addu	v1,v1,v0
  406a3c:	00641823 	subu	v1,v1,a0
  406a40:	00651821 	addu	v1,v1,a1
  406a44:	afa30004 	sw	v1,4(sp)
  406a48:	8fa20000 	lw	v0,0(sp)
  406a4c:	8fa30004 	lw	v1,4(sp)
  406a50:	8fa40008 	lw	a0,8(sp)
  406a54:	00431021 	addu	v0,v0,v1
  406a58:	00441023 	subu	v0,v0,a0
  406a5c:	00451021 	addu	v0,v0,a1
  406a60:	afa20000 	sw	v0,0(sp)
  406a64:	8fa30000 	lw	v1,0(sp)
  406a68:	8fa20004 	lw	v0,4(sp)
  406a6c:	8fa40008 	lw	a0,8(sp)
  406a70:	00621821 	addu	v1,v1,v0
  406a74:	00641823 	subu	v1,v1,a0
  406a78:	00651821 	addu	v1,v1,a1
  406a7c:	24a50001 	addiu	a1,a1,1
  406a80:	28a20002 	slti	v0,a1,2
  406a84:	1440ff8e 	bnez	v0,4068c0 <func_16+0x440>
  406a88:	afa30004 	sw	v1,4(sp)
  406a8c:	8fa20000 	lw	v0,0(sp)
  406a90:	8fa30004 	lw	v1,4(sp)
  406a94:	8fa40008 	lw	a0,8(sp)
  406a98:	00431021 	addu	v0,v0,v1
  406a9c:	00441021 	addu	v0,v0,a0
  406aa0:	03e00008 	jr	ra
  406aa4:	27bd0010 	addiu	sp,sp,16

00406aa8 <func_17>:
  406aa8:	27bdfff0 	addiu	sp,sp,-16
  406aac:	2402000a 	li	v0,10
  406ab0:	afa20000 	sw	v0,0(sp)
  406ab4:	2403000b 	li	v1,11
  406ab8:	2402000c 	li	v0,12
  406abc:	afa30004 	sw	v1,4(sp)
  406ac0:	00002821 	move	a1,zero
  406ac4:	afa20008 	sw	v0,8(sp)
  406ac8:	8fa20000 	lw	v0,0(sp)
  406acc:	8fa30004 	lw	v1,4(sp)
  406ad0:	8fa40008 	lw	a0,8(sp)
  406ad4:	00431021 	addu	v0,v0,v1
  406ad8:	00441023 	subu	v0,v0,a0
  406adc:	00451021 	addu	v0,v0,a1
  406ae0:	afa20000 	sw	v0,0(sp)
  406ae4:	8fa30000 	lw	v1,0(sp)
  406ae8:	8fa20004 	lw	v0,4(sp)
  406aec:	8fa40008 	lw	a0,8(sp)
  406af0:	00621821 	addu	v1,v1,v0
  406af4:	00641823 	subu	v1,v1,a0
  406af8:	00651821 	addu	v1,v1,a1
  406afc:	afa30004 	sw	v1,4(sp)
  406b00:	8fa20000 	lw	v0,0(sp)
  406b04:	8fa30004 	lw	v1,4(sp)
  406b08:	8fa40008 	lw	a0,8(sp)
  406b0c:	00431021 	addu	v0,v0,v1
  406b10:	00441023 	subu	v0,v0,a0
  406b14:	00451021 	addu	v0,v0,a1
  406b18:	afa20008 	sw	v0,8(sp)
  406b1c:	8fa30000 	lw	v1,0(sp)
  406b20:	8fa20004 	lw	v0,4(sp)
  406b24:	8fa40008 	lw	a0,8(sp)
  406b28:	00621821 	addu	v1,v1,v0
  406b2c:	00641823 	subu	v1,v1,a0
  406b30:	00651821 	addu	v1,v1,a1
  406b34:	afa30000 	sw	v1,0(sp)
  406b38:	8fa20000 	lw	v0,0(sp)
  406b3c:	8fa30004 	lw	v1,4(sp)
  406b40:	8fa40008 	lw	a0,8(sp)
  406b44:	00431021 	addu	v0,v0,v1
  406b48:	00441023 	subu	v0,v0,a0
  406b4c:	00451021 	addu	v0,v0,a1
  406b50:	afa20004 	sw	v0,4(sp)
  406b54:	8fa30000 	lw	v1,0(sp)
  406b58:	8fa20004 	lw	v0,4(sp)
  406b5c:	8fa40008 	lw	a0,8(sp)
  406b60:	00621821 	addu	v1,v1,v0
  406b64:	00641823 	subu	v1,v1,a0
  406b68:	00651821 	addu	v1,v1,a1
  406b6c:	afa30008 	sw	v1,8(sp)
  406b70:	8fa20000 	lw	v0,0(sp)
  406b74:	8fa30004 	lw	v1,4(sp)
  406b78:	8fa40008 	lw	a0,8(sp)
  406b7c:	00431021 	addu	v0,v0,v1
  406b80:	00441023 	subu	v0,v0,a0
  406b84:	00451021 	addu	v0,v0,a1
  406b88:	afa20000 	sw	v0,0(sp)
  406b8c:	8fa30000 	lw	v1,0(sp)
  406b90:	8fa20004 	lw	v0,4(sp)
  406b94:	8fa40008 	lw	a0,8(sp)
  406b98:	00621821 	addu	v1,v1,v0
  406b9c:	00641823 	subu	v1,v1,a0
  406ba0:	00651821 	addu	v1,v1,a1
  406ba4:	afa30004 	sw	v1,4(sp)
  406ba8:	8fa20000 	lw	v0,0(sp)
  406bac:	8fa30004 	lw	v1,4(sp)
  406bb0:	8fa40008 	lw	a0,8(sp)
  406bb4:	00431021 	addu	v0,v0,v1
  406bb8:	00441023 	subu	v0,v0,a0
  406bbc:	00451021 	addu	v0,v0,a1
  406bc0:	afa20008 	sw	v0,8(sp)
  406bc4:	8fa30000 	lw	v1,0(sp)
  406bc8:	8fa20004 	lw	v0,4(sp)
  406bcc:	8fa40008 	lw	a0,8(sp)
  406bd0:	00621821 	addu	v1,v1,v0
  406bd4:	00641823 	subu	v1,v1,a0
  406bd8:	00651821 	addu	v1,v1,a1
  406bdc:	afa30000 	sw	v1,0(sp)
  406be0:	8fa20000 	lw	v0,0(sp)
  406be4:	8fa30004 	lw	v1,4(sp)
  406be8:	8fa40008 	lw	a0,8(sp)
  406bec:	00431021 	addu	v0,v0,v1
  406bf0:	00441023 	subu	v0,v0,a0
  406bf4:	00451021 	addu	v0,v0,a1
  406bf8:	afa20004 	sw	v0,4(sp)
  406bfc:	8fa30000 	lw	v1,0(sp)
  406c00:	8fa20004 	lw	v0,4(sp)
  406c04:	8fa40008 	lw	a0,8(sp)
  406c08:	00621821 	addu	v1,v1,v0
  406c0c:	00641823 	subu	v1,v1,a0
  406c10:	00651821 	addu	v1,v1,a1
  406c14:	afa30008 	sw	v1,8(sp)
  406c18:	8fa20000 	lw	v0,0(sp)
  406c1c:	8fa30004 	lw	v1,4(sp)
  406c20:	8fa40008 	lw	a0,8(sp)
  406c24:	00431021 	addu	v0,v0,v1
  406c28:	00441023 	subu	v0,v0,a0
  406c2c:	00451021 	addu	v0,v0,a1
  406c30:	afa20000 	sw	v0,0(sp)
  406c34:	8fa30000 	lw	v1,0(sp)
  406c38:	8fa20004 	lw	v0,4(sp)
  406c3c:	8fa40008 	lw	a0,8(sp)
  406c40:	00621821 	addu	v1,v1,v0
  406c44:	00641823 	subu	v1,v1,a0
  406c48:	00651821 	addu	v1,v1,a1
  406c4c:	afa30004 	sw	v1,4(sp)
  406c50:	8fa20000 	lw	v0,0(sp)
  406c54:	8fa30004 	lw	v1,4(sp)
  406c58:	8fa40008 	lw	a0,8(sp)
  406c5c:	00431021 	addu	v0,v0,v1
  406c60:	00441023 	subu	v0,v0,a0
  406c64:	00451021 	addu	v0,v0,a1
  406c68:	afa20008 	sw	v0,8(sp)
  406c6c:	8fa30000 	lw	v1,0(sp)
  406c70:	8fa20004 	lw	v0,4(sp)
  406c74:	8fa40008 	lw	a0,8(sp)
  406c78:	00621821 	addu	v1,v1,v0
  406c7c:	00641823 	subu	v1,v1,a0
  406c80:	00651821 	addu	v1,v1,a1
  406c84:	24a50001 	addiu	a1,a1,1
  406c88:	28a20002 	slti	v0,a1,2
  406c8c:	1440ff8e 	bnez	v0,406ac8 <func_17+0x20>
  406c90:	afa30000 	sw	v1,0(sp)
  406c94:	00002821 	move	a1,zero
  406c98:	8fa20000 	lw	v0,0(sp)
  406c9c:	8fa30004 	lw	v1,4(sp)
  406ca0:	8fa40008 	lw	a0,8(sp)
  406ca4:	00431021 	addu	v0,v0,v1
  406ca8:	00441023 	subu	v0,v0,a0
  406cac:	00451021 	addu	v0,v0,a1
  406cb0:	afa20004 	sw	v0,4(sp)
  406cb4:	8fa30000 	lw	v1,0(sp)
  406cb8:	8fa20004 	lw	v0,4(sp)
  406cbc:	8fa40008 	lw	a0,8(sp)
  406cc0:	00621821 	addu	v1,v1,v0
  406cc4:	00641823 	subu	v1,v1,a0
  406cc8:	00651821 	addu	v1,v1,a1
  406ccc:	afa30000 	sw	v1,0(sp)
  406cd0:	8fa20000 	lw	v0,0(sp)
  406cd4:	8fa30004 	lw	v1,4(sp)
  406cd8:	8fa40008 	lw	a0,8(sp)
  406cdc:	00431021 	addu	v0,v0,v1
  406ce0:	00441023 	subu	v0,v0,a0
  406ce4:	00451021 	addu	v0,v0,a1
  406ce8:	afa20008 	sw	v0,8(sp)
  406cec:	8fa30000 	lw	v1,0(sp)
  406cf0:	8fa20004 	lw	v0,4(sp)
  406cf4:	8fa40008 	lw	a0,8(sp)
  406cf8:	00621821 	addu	v1,v1,v0
  406cfc:	00641823 	subu	v1,v1,a0
  406d00:	00651821 	addu	v1,v1,a1
  406d04:	afa30004 	sw	v1,4(sp)
  406d08:	8fa20000 	lw	v0,0(sp)
  406d0c:	8fa30004 	lw	v1,4(sp)
  406d10:	8fa40008 	lw	a0,8(sp)
  406d14:	00431021 	addu	v0,v0,v1
  406d18:	00441023 	subu	v0,v0,a0
  406d1c:	00451021 	addu	v0,v0,a1
  406d20:	afa20004 	sw	v0,4(sp)
  406d24:	8fa30000 	lw	v1,0(sp)
  406d28:	8fa20004 	lw	v0,4(sp)
  406d2c:	8fa40008 	lw	a0,8(sp)
  406d30:	00621821 	addu	v1,v1,v0
  406d34:	00641823 	subu	v1,v1,a0
  406d38:	00651821 	addu	v1,v1,a1
  406d3c:	afa30000 	sw	v1,0(sp)
  406d40:	8fa20000 	lw	v0,0(sp)
  406d44:	8fa30004 	lw	v1,4(sp)
  406d48:	8fa40008 	lw	a0,8(sp)
  406d4c:	00431021 	addu	v0,v0,v1
  406d50:	00441023 	subu	v0,v0,a0
  406d54:	00451021 	addu	v0,v0,a1
  406d58:	afa20008 	sw	v0,8(sp)
  406d5c:	8fa30000 	lw	v1,0(sp)
  406d60:	8fa20004 	lw	v0,4(sp)
  406d64:	8fa40008 	lw	a0,8(sp)
  406d68:	00621821 	addu	v1,v1,v0
  406d6c:	00641823 	subu	v1,v1,a0
  406d70:	00651821 	addu	v1,v1,a1
  406d74:	afa30004 	sw	v1,4(sp)
  406d78:	8fa20000 	lw	v0,0(sp)
  406d7c:	8fa30004 	lw	v1,4(sp)
  406d80:	8fa40008 	lw	a0,8(sp)
  406d84:	00431021 	addu	v0,v0,v1
  406d88:	00441023 	subu	v0,v0,a0
  406d8c:	00451021 	addu	v0,v0,a1
  406d90:	afa20000 	sw	v0,0(sp)
  406d94:	8fa30000 	lw	v1,0(sp)
  406d98:	8fa20004 	lw	v0,4(sp)
  406d9c:	8fa40008 	lw	a0,8(sp)
  406da0:	00621821 	addu	v1,v1,v0
  406da4:	00641823 	subu	v1,v1,a0
  406da8:	00651821 	addu	v1,v1,a1
  406dac:	afa30008 	sw	v1,8(sp)
  406db0:	8fa20000 	lw	v0,0(sp)
  406db4:	8fa30004 	lw	v1,4(sp)
  406db8:	8fa40008 	lw	a0,8(sp)
  406dbc:	00431021 	addu	v0,v0,v1
  406dc0:	00441023 	subu	v0,v0,a0
  406dc4:	00451021 	addu	v0,v0,a1
  406dc8:	afa20004 	sw	v0,4(sp)
  406dcc:	8fa30000 	lw	v1,0(sp)
  406dd0:	8fa20004 	lw	v0,4(sp)
  406dd4:	8fa40008 	lw	a0,8(sp)
  406dd8:	00621821 	addu	v1,v1,v0
  406ddc:	00641823 	subu	v1,v1,a0
  406de0:	00651821 	addu	v1,v1,a1
  406de4:	afa30000 	sw	v1,0(sp)
  406de8:	8fa20000 	lw	v0,0(sp)
  406dec:	8fa30004 	lw	v1,4(sp)
  406df0:	8fa40008 	lw	a0,8(sp)
  406df4:	00431021 	addu	v0,v0,v1
  406df8:	00441023 	subu	v0,v0,a0
  406dfc:	00451021 	addu	v0,v0,a1
  406e00:	24a50001 	addiu	a1,a1,1
  406e04:	28a30002 	slti	v1,a1,2
  406e08:	1460ffa3 	bnez	v1,406c98 <func_17+0x1f0>
  406e0c:	afa20008 	sw	v0,8(sp)
  406e10:	00002821 	move	a1,zero
  406e14:	8fa20000 	lw	v0,0(sp)
  406e18:	8fa30004 	lw	v1,4(sp)
  406e1c:	8fa40008 	lw	a0,8(sp)
  406e20:	00431021 	addu	v0,v0,v1
  406e24:	00441023 	subu	v0,v0,a0
  406e28:	00451021 	addu	v0,v0,a1
  406e2c:	afa20008 	sw	v0,8(sp)
  406e30:	8fa30000 	lw	v1,0(sp)
  406e34:	8fa20004 	lw	v0,4(sp)
  406e38:	8fa40008 	lw	a0,8(sp)
  406e3c:	00621821 	addu	v1,v1,v0
  406e40:	00641823 	subu	v1,v1,a0
  406e44:	00651821 	addu	v1,v1,a1
  406e48:	afa30004 	sw	v1,4(sp)
  406e4c:	8fa20000 	lw	v0,0(sp)
  406e50:	8fa30004 	lw	v1,4(sp)
  406e54:	8fa40008 	lw	a0,8(sp)
  406e58:	00431021 	addu	v0,v0,v1
  406e5c:	00441023 	subu	v0,v0,a0
  406e60:	00451021 	addu	v0,v0,a1
  406e64:	afa20000 	sw	v0,0(sp)
  406e68:	8fa30000 	lw	v1,0(sp)
  406e6c:	8fa20004 	lw	v0,4(sp)
  406e70:	8fa40008 	lw	a0,8(sp)
  406e74:	00621821 	addu	v1,v1,v0
  406e78:	00641823 	subu	v1,v1,a0
  406e7c:	00651821 	addu	v1,v1,a1
  406e80:	afa30008 	sw	v1,8(sp)
  406e84:	8fa20000 	lw	v0,0(sp)
  406e88:	8fa30004 	lw	v1,4(sp)
  406e8c:	8fa40008 	lw	a0,8(sp)
  406e90:	00431021 	addu	v0,v0,v1
  406e94:	00441023 	subu	v0,v0,a0
  406e98:	00451021 	addu	v0,v0,a1
  406e9c:	afa20004 	sw	v0,4(sp)
  406ea0:	8fa30000 	lw	v1,0(sp)
  406ea4:	8fa20004 	lw	v0,4(sp)
  406ea8:	8fa40008 	lw	a0,8(sp)
  406eac:	00621821 	addu	v1,v1,v0
  406eb0:	00641823 	subu	v1,v1,a0
  406eb4:	00651821 	addu	v1,v1,a1
  406eb8:	afa30000 	sw	v1,0(sp)
  406ebc:	8fa20000 	lw	v0,0(sp)
  406ec0:	8fa30004 	lw	v1,4(sp)
  406ec4:	8fa40008 	lw	a0,8(sp)
  406ec8:	00431021 	addu	v0,v0,v1
  406ecc:	00441023 	subu	v0,v0,a0
  406ed0:	00451021 	addu	v0,v0,a1
  406ed4:	24a50001 	addiu	a1,a1,1
  406ed8:	28a30002 	slti	v1,a1,2
  406edc:	1460ffcd 	bnez	v1,406e14 <func_17+0x36c>
  406ee0:	afa20008 	sw	v0,8(sp)
  406ee4:	00002821 	move	a1,zero
  406ee8:	8fa20000 	lw	v0,0(sp)
  406eec:	8fa30004 	lw	v1,4(sp)
  406ef0:	8fa40008 	lw	a0,8(sp)
  406ef4:	00431021 	addu	v0,v0,v1
  406ef8:	00441023 	subu	v0,v0,a0
  406efc:	00451021 	addu	v0,v0,a1
  406f00:	afa20000 	sw	v0,0(sp)
  406f04:	8fa30000 	lw	v1,0(sp)
  406f08:	8fa20004 	lw	v0,4(sp)
  406f0c:	8fa40008 	lw	a0,8(sp)
  406f10:	00621821 	addu	v1,v1,v0
  406f14:	00641823 	subu	v1,v1,a0
  406f18:	00651821 	addu	v1,v1,a1
  406f1c:	afa30008 	sw	v1,8(sp)
  406f20:	8fa20000 	lw	v0,0(sp)
  406f24:	8fa30004 	lw	v1,4(sp)
  406f28:	8fa40008 	lw	a0,8(sp)
  406f2c:	00431021 	addu	v0,v0,v1
  406f30:	00441023 	subu	v0,v0,a0
  406f34:	00451021 	addu	v0,v0,a1
  406f38:	afa20004 	sw	v0,4(sp)
  406f3c:	8fa30000 	lw	v1,0(sp)
  406f40:	8fa20004 	lw	v0,4(sp)
  406f44:	8fa40008 	lw	a0,8(sp)
  406f48:	00621821 	addu	v1,v1,v0
  406f4c:	00641823 	subu	v1,v1,a0
  406f50:	00651821 	addu	v1,v1,a1
  406f54:	afa30000 	sw	v1,0(sp)
  406f58:	8fa20000 	lw	v0,0(sp)
  406f5c:	8fa30004 	lw	v1,4(sp)
  406f60:	8fa40008 	lw	a0,8(sp)
  406f64:	00431021 	addu	v0,v0,v1
  406f68:	00441023 	subu	v0,v0,a0
  406f6c:	00451021 	addu	v0,v0,a1
  406f70:	afa20008 	sw	v0,8(sp)
  406f74:	8fa30000 	lw	v1,0(sp)
  406f78:	8fa20004 	lw	v0,4(sp)
  406f7c:	8fa40008 	lw	a0,8(sp)
  406f80:	00621821 	addu	v1,v1,v0
  406f84:	00641823 	subu	v1,v1,a0
  406f88:	00651821 	addu	v1,v1,a1
  406f8c:	afa30004 	sw	v1,4(sp)
  406f90:	8fa20000 	lw	v0,0(sp)
  406f94:	8fa30004 	lw	v1,4(sp)
  406f98:	8fa40008 	lw	a0,8(sp)
  406f9c:	00431021 	addu	v0,v0,v1
  406fa0:	00441023 	subu	v0,v0,a0
  406fa4:	00451021 	addu	v0,v0,a1
  406fa8:	afa20000 	sw	v0,0(sp)
  406fac:	8fa30000 	lw	v1,0(sp)
  406fb0:	8fa20004 	lw	v0,4(sp)
  406fb4:	8fa40008 	lw	a0,8(sp)
  406fb8:	00621821 	addu	v1,v1,v0
  406fbc:	00641823 	subu	v1,v1,a0
  406fc0:	00651821 	addu	v1,v1,a1
  406fc4:	afa30004 	sw	v1,4(sp)
  406fc8:	8fa20000 	lw	v0,0(sp)
  406fcc:	8fa30004 	lw	v1,4(sp)
  406fd0:	8fa40008 	lw	a0,8(sp)
  406fd4:	00431021 	addu	v0,v0,v1
  406fd8:	00441023 	subu	v0,v0,a0
  406fdc:	00451021 	addu	v0,v0,a1
  406fe0:	afa20000 	sw	v0,0(sp)
  406fe4:	8fa30000 	lw	v1,0(sp)
  406fe8:	8fa20004 	lw	v0,4(sp)
  406fec:	8fa40008 	lw	a0,8(sp)
  406ff0:	00621821 	addu	v1,v1,v0
  406ff4:	00641823 	subu	v1,v1,a0
  406ff8:	00651821 	addu	v1,v1,a1
  406ffc:	afa30008 	sw	v1,8(sp)
  407000:	8fa20000 	lw	v0,0(sp)
  407004:	8fa30004 	lw	v1,4(sp)
  407008:	8fa40008 	lw	a0,8(sp)
  40700c:	00431021 	addu	v0,v0,v1
  407010:	00441023 	subu	v0,v0,a0
  407014:	00451021 	addu	v0,v0,a1
  407018:	afa20004 	sw	v0,4(sp)
  40701c:	8fa30000 	lw	v1,0(sp)
  407020:	8fa20004 	lw	v0,4(sp)
  407024:	8fa40008 	lw	a0,8(sp)
  407028:	00621821 	addu	v1,v1,v0
  40702c:	00641823 	subu	v1,v1,a0
  407030:	00651821 	addu	v1,v1,a1
  407034:	afa30000 	sw	v1,0(sp)
  407038:	8fa20000 	lw	v0,0(sp)
  40703c:	8fa30004 	lw	v1,4(sp)
  407040:	8fa40008 	lw	a0,8(sp)
  407044:	00431021 	addu	v0,v0,v1
  407048:	00441023 	subu	v0,v0,a0
  40704c:	00451021 	addu	v0,v0,a1
  407050:	afa20008 	sw	v0,8(sp)
  407054:	8fa30000 	lw	v1,0(sp)
  407058:	8fa20004 	lw	v0,4(sp)
  40705c:	8fa40008 	lw	a0,8(sp)
  407060:	00621821 	addu	v1,v1,v0
  407064:	00641823 	subu	v1,v1,a0
  407068:	00651821 	addu	v1,v1,a1
  40706c:	afa30004 	sw	v1,4(sp)
  407070:	8fa20000 	lw	v0,0(sp)
  407074:	8fa30004 	lw	v1,4(sp)
  407078:	8fa40008 	lw	a0,8(sp)
  40707c:	00431021 	addu	v0,v0,v1
  407080:	00441023 	subu	v0,v0,a0
  407084:	00451021 	addu	v0,v0,a1
  407088:	afa20000 	sw	v0,0(sp)
  40708c:	8fa30000 	lw	v1,0(sp)
  407090:	8fa20004 	lw	v0,4(sp)
  407094:	8fa40008 	lw	a0,8(sp)
  407098:	00621821 	addu	v1,v1,v0
  40709c:	00641823 	subu	v1,v1,a0
  4070a0:	00651821 	addu	v1,v1,a1
  4070a4:	24a50001 	addiu	a1,a1,1
  4070a8:	28a20002 	slti	v0,a1,2
  4070ac:	1440ff8e 	bnez	v0,406ee8 <func_17+0x440>
  4070b0:	afa30004 	sw	v1,4(sp)
  4070b4:	8fa20000 	lw	v0,0(sp)
  4070b8:	8fa30004 	lw	v1,4(sp)
  4070bc:	8fa40008 	lw	a0,8(sp)
  4070c0:	00431021 	addu	v0,v0,v1
  4070c4:	00441021 	addu	v0,v0,a0
  4070c8:	03e00008 	jr	ra
  4070cc:	27bd0010 	addiu	sp,sp,16

004070d0 <func_18>:
  4070d0:	27bdfff0 	addiu	sp,sp,-16
  4070d4:	2402000a 	li	v0,10
  4070d8:	afa20000 	sw	v0,0(sp)
  4070dc:	2403000b 	li	v1,11
  4070e0:	2402000c 	li	v0,12
  4070e4:	afa30004 	sw	v1,4(sp)
  4070e8:	00002821 	move	a1,zero
  4070ec:	afa20008 	sw	v0,8(sp)
  4070f0:	8fa20000 	lw	v0,0(sp)
  4070f4:	8fa30004 	lw	v1,4(sp)
  4070f8:	8fa40008 	lw	a0,8(sp)
  4070fc:	00431021 	addu	v0,v0,v1
  407100:	00441023 	subu	v0,v0,a0
  407104:	00451021 	addu	v0,v0,a1
  407108:	afa20000 	sw	v0,0(sp)
  40710c:	8fa30000 	lw	v1,0(sp)
  407110:	8fa20004 	lw	v0,4(sp)
  407114:	8fa40008 	lw	a0,8(sp)
  407118:	00621821 	addu	v1,v1,v0
  40711c:	00641823 	subu	v1,v1,a0
  407120:	00651821 	addu	v1,v1,a1
  407124:	afa30004 	sw	v1,4(sp)
  407128:	8fa20000 	lw	v0,0(sp)
  40712c:	8fa30004 	lw	v1,4(sp)
  407130:	8fa40008 	lw	a0,8(sp)
  407134:	00431021 	addu	v0,v0,v1
  407138:	00441023 	subu	v0,v0,a0
  40713c:	00451021 	addu	v0,v0,a1
  407140:	afa20008 	sw	v0,8(sp)
  407144:	8fa30000 	lw	v1,0(sp)
  407148:	8fa20004 	lw	v0,4(sp)
  40714c:	8fa40008 	lw	a0,8(sp)
  407150:	00621821 	addu	v1,v1,v0
  407154:	00641823 	subu	v1,v1,a0
  407158:	00651821 	addu	v1,v1,a1
  40715c:	afa30000 	sw	v1,0(sp)
  407160:	8fa20000 	lw	v0,0(sp)
  407164:	8fa30004 	lw	v1,4(sp)
  407168:	8fa40008 	lw	a0,8(sp)
  40716c:	00431021 	addu	v0,v0,v1
  407170:	00441023 	subu	v0,v0,a0
  407174:	00451021 	addu	v0,v0,a1
  407178:	afa20004 	sw	v0,4(sp)
  40717c:	8fa30000 	lw	v1,0(sp)
  407180:	8fa20004 	lw	v0,4(sp)
  407184:	8fa40008 	lw	a0,8(sp)
  407188:	00621821 	addu	v1,v1,v0
  40718c:	00641823 	subu	v1,v1,a0
  407190:	00651821 	addu	v1,v1,a1
  407194:	afa30008 	sw	v1,8(sp)
  407198:	8fa20000 	lw	v0,0(sp)
  40719c:	8fa30004 	lw	v1,4(sp)
  4071a0:	8fa40008 	lw	a0,8(sp)
  4071a4:	00431021 	addu	v0,v0,v1
  4071a8:	00441023 	subu	v0,v0,a0
  4071ac:	00451021 	addu	v0,v0,a1
  4071b0:	afa20000 	sw	v0,0(sp)
  4071b4:	8fa30000 	lw	v1,0(sp)
  4071b8:	8fa20004 	lw	v0,4(sp)
  4071bc:	8fa40008 	lw	a0,8(sp)
  4071c0:	00621821 	addu	v1,v1,v0
  4071c4:	00641823 	subu	v1,v1,a0
  4071c8:	00651821 	addu	v1,v1,a1
  4071cc:	afa30004 	sw	v1,4(sp)
  4071d0:	8fa20000 	lw	v0,0(sp)
  4071d4:	8fa30004 	lw	v1,4(sp)
  4071d8:	8fa40008 	lw	a0,8(sp)
  4071dc:	00431021 	addu	v0,v0,v1
  4071e0:	00441023 	subu	v0,v0,a0
  4071e4:	00451021 	addu	v0,v0,a1
  4071e8:	afa20008 	sw	v0,8(sp)
  4071ec:	8fa30000 	lw	v1,0(sp)
  4071f0:	8fa20004 	lw	v0,4(sp)
  4071f4:	8fa40008 	lw	a0,8(sp)
  4071f8:	00621821 	addu	v1,v1,v0
  4071fc:	00641823 	subu	v1,v1,a0
  407200:	00651821 	addu	v1,v1,a1
  407204:	afa30000 	sw	v1,0(sp)
  407208:	8fa20000 	lw	v0,0(sp)
  40720c:	8fa30004 	lw	v1,4(sp)
  407210:	8fa40008 	lw	a0,8(sp)
  407214:	00431021 	addu	v0,v0,v1
  407218:	00441023 	subu	v0,v0,a0
  40721c:	00451021 	addu	v0,v0,a1
  407220:	afa20004 	sw	v0,4(sp)
  407224:	8fa30000 	lw	v1,0(sp)
  407228:	8fa20004 	lw	v0,4(sp)
  40722c:	8fa40008 	lw	a0,8(sp)
  407230:	00621821 	addu	v1,v1,v0
  407234:	00641823 	subu	v1,v1,a0
  407238:	00651821 	addu	v1,v1,a1
  40723c:	afa30008 	sw	v1,8(sp)
  407240:	8fa20000 	lw	v0,0(sp)
  407244:	8fa30004 	lw	v1,4(sp)
  407248:	8fa40008 	lw	a0,8(sp)
  40724c:	00431021 	addu	v0,v0,v1
  407250:	00441023 	subu	v0,v0,a0
  407254:	00451021 	addu	v0,v0,a1
  407258:	afa20000 	sw	v0,0(sp)
  40725c:	8fa30000 	lw	v1,0(sp)
  407260:	8fa20004 	lw	v0,4(sp)
  407264:	8fa40008 	lw	a0,8(sp)
  407268:	00621821 	addu	v1,v1,v0
  40726c:	00641823 	subu	v1,v1,a0
  407270:	00651821 	addu	v1,v1,a1
  407274:	afa30004 	sw	v1,4(sp)
  407278:	8fa20000 	lw	v0,0(sp)
  40727c:	8fa30004 	lw	v1,4(sp)
  407280:	8fa40008 	lw	a0,8(sp)
  407284:	00431021 	addu	v0,v0,v1
  407288:	00441023 	subu	v0,v0,a0
  40728c:	00451021 	addu	v0,v0,a1
  407290:	afa20008 	sw	v0,8(sp)
  407294:	8fa30000 	lw	v1,0(sp)
  407298:	8fa20004 	lw	v0,4(sp)
  40729c:	8fa40008 	lw	a0,8(sp)
  4072a0:	00621821 	addu	v1,v1,v0
  4072a4:	00641823 	subu	v1,v1,a0
  4072a8:	00651821 	addu	v1,v1,a1
  4072ac:	24a50001 	addiu	a1,a1,1
  4072b0:	28a20002 	slti	v0,a1,2
  4072b4:	1440ff8e 	bnez	v0,4070f0 <func_18+0x20>
  4072b8:	afa30000 	sw	v1,0(sp)
  4072bc:	00002821 	move	a1,zero
  4072c0:	8fa20000 	lw	v0,0(sp)
  4072c4:	8fa30004 	lw	v1,4(sp)
  4072c8:	8fa40008 	lw	a0,8(sp)
  4072cc:	00431021 	addu	v0,v0,v1
  4072d0:	00441023 	subu	v0,v0,a0
  4072d4:	00451021 	addu	v0,v0,a1
  4072d8:	afa20004 	sw	v0,4(sp)
  4072dc:	8fa30000 	lw	v1,0(sp)
  4072e0:	8fa20004 	lw	v0,4(sp)
  4072e4:	8fa40008 	lw	a0,8(sp)
  4072e8:	00621821 	addu	v1,v1,v0
  4072ec:	00641823 	subu	v1,v1,a0
  4072f0:	00651821 	addu	v1,v1,a1
  4072f4:	afa30000 	sw	v1,0(sp)
  4072f8:	8fa20000 	lw	v0,0(sp)
  4072fc:	8fa30004 	lw	v1,4(sp)
  407300:	8fa40008 	lw	a0,8(sp)
  407304:	00431021 	addu	v0,v0,v1
  407308:	00441023 	subu	v0,v0,a0
  40730c:	00451021 	addu	v0,v0,a1
  407310:	afa20008 	sw	v0,8(sp)
  407314:	8fa30000 	lw	v1,0(sp)
  407318:	8fa20004 	lw	v0,4(sp)
  40731c:	8fa40008 	lw	a0,8(sp)
  407320:	00621821 	addu	v1,v1,v0
  407324:	00641823 	subu	v1,v1,a0
  407328:	00651821 	addu	v1,v1,a1
  40732c:	afa30004 	sw	v1,4(sp)
  407330:	8fa20000 	lw	v0,0(sp)
  407334:	8fa30004 	lw	v1,4(sp)
  407338:	8fa40008 	lw	a0,8(sp)
  40733c:	00431021 	addu	v0,v0,v1
  407340:	00441023 	subu	v0,v0,a0
  407344:	00451021 	addu	v0,v0,a1
  407348:	afa20004 	sw	v0,4(sp)
  40734c:	8fa30000 	lw	v1,0(sp)
  407350:	8fa20004 	lw	v0,4(sp)
  407354:	8fa40008 	lw	a0,8(sp)
  407358:	00621821 	addu	v1,v1,v0
  40735c:	00641823 	subu	v1,v1,a0
  407360:	00651821 	addu	v1,v1,a1
  407364:	afa30000 	sw	v1,0(sp)
  407368:	8fa20000 	lw	v0,0(sp)
  40736c:	8fa30004 	lw	v1,4(sp)
  407370:	8fa40008 	lw	a0,8(sp)
  407374:	00431021 	addu	v0,v0,v1
  407378:	00441023 	subu	v0,v0,a0
  40737c:	00451021 	addu	v0,v0,a1
  407380:	afa20008 	sw	v0,8(sp)
  407384:	8fa30000 	lw	v1,0(sp)
  407388:	8fa20004 	lw	v0,4(sp)
  40738c:	8fa40008 	lw	a0,8(sp)
  407390:	00621821 	addu	v1,v1,v0
  407394:	00641823 	subu	v1,v1,a0
  407398:	00651821 	addu	v1,v1,a1
  40739c:	afa30004 	sw	v1,4(sp)
  4073a0:	8fa20000 	lw	v0,0(sp)
  4073a4:	8fa30004 	lw	v1,4(sp)
  4073a8:	8fa40008 	lw	a0,8(sp)
  4073ac:	00431021 	addu	v0,v0,v1
  4073b0:	00441023 	subu	v0,v0,a0
  4073b4:	00451021 	addu	v0,v0,a1
  4073b8:	afa20000 	sw	v0,0(sp)
  4073bc:	8fa30000 	lw	v1,0(sp)
  4073c0:	8fa20004 	lw	v0,4(sp)
  4073c4:	8fa40008 	lw	a0,8(sp)
  4073c8:	00621821 	addu	v1,v1,v0
  4073cc:	00641823 	subu	v1,v1,a0
  4073d0:	00651821 	addu	v1,v1,a1
  4073d4:	afa30008 	sw	v1,8(sp)
  4073d8:	8fa20000 	lw	v0,0(sp)
  4073dc:	8fa30004 	lw	v1,4(sp)
  4073e0:	8fa40008 	lw	a0,8(sp)
  4073e4:	00431021 	addu	v0,v0,v1
  4073e8:	00441023 	subu	v0,v0,a0
  4073ec:	00451021 	addu	v0,v0,a1
  4073f0:	afa20004 	sw	v0,4(sp)
  4073f4:	8fa30000 	lw	v1,0(sp)
  4073f8:	8fa20004 	lw	v0,4(sp)
  4073fc:	8fa40008 	lw	a0,8(sp)
  407400:	00621821 	addu	v1,v1,v0
  407404:	00641823 	subu	v1,v1,a0
  407408:	00651821 	addu	v1,v1,a1
  40740c:	afa30000 	sw	v1,0(sp)
  407410:	8fa20000 	lw	v0,0(sp)
  407414:	8fa30004 	lw	v1,4(sp)
  407418:	8fa40008 	lw	a0,8(sp)
  40741c:	00431021 	addu	v0,v0,v1
  407420:	00441023 	subu	v0,v0,a0
  407424:	00451021 	addu	v0,v0,a1
  407428:	24a50001 	addiu	a1,a1,1
  40742c:	28a30002 	slti	v1,a1,2
  407430:	1460ffa3 	bnez	v1,4072c0 <func_18+0x1f0>
  407434:	afa20008 	sw	v0,8(sp)
  407438:	00002821 	move	a1,zero
  40743c:	8fa20000 	lw	v0,0(sp)
  407440:	8fa30004 	lw	v1,4(sp)
  407444:	8fa40008 	lw	a0,8(sp)
  407448:	00431021 	addu	v0,v0,v1
  40744c:	00441023 	subu	v0,v0,a0
  407450:	00451021 	addu	v0,v0,a1
  407454:	afa20008 	sw	v0,8(sp)
  407458:	8fa30000 	lw	v1,0(sp)
  40745c:	8fa20004 	lw	v0,4(sp)
  407460:	8fa40008 	lw	a0,8(sp)
  407464:	00621821 	addu	v1,v1,v0
  407468:	00641823 	subu	v1,v1,a0
  40746c:	00651821 	addu	v1,v1,a1
  407470:	afa30004 	sw	v1,4(sp)
  407474:	8fa20000 	lw	v0,0(sp)
  407478:	8fa30004 	lw	v1,4(sp)
  40747c:	8fa40008 	lw	a0,8(sp)
  407480:	00431021 	addu	v0,v0,v1
  407484:	00441023 	subu	v0,v0,a0
  407488:	00451021 	addu	v0,v0,a1
  40748c:	afa20000 	sw	v0,0(sp)
  407490:	8fa30000 	lw	v1,0(sp)
  407494:	8fa20004 	lw	v0,4(sp)
  407498:	8fa40008 	lw	a0,8(sp)
  40749c:	00621821 	addu	v1,v1,v0
  4074a0:	00641823 	subu	v1,v1,a0
  4074a4:	00651821 	addu	v1,v1,a1
  4074a8:	afa30008 	sw	v1,8(sp)
  4074ac:	8fa20000 	lw	v0,0(sp)
  4074b0:	8fa30004 	lw	v1,4(sp)
  4074b4:	8fa40008 	lw	a0,8(sp)
  4074b8:	00431021 	addu	v0,v0,v1
  4074bc:	00441023 	subu	v0,v0,a0
  4074c0:	00451021 	addu	v0,v0,a1
  4074c4:	afa20004 	sw	v0,4(sp)
  4074c8:	8fa30000 	lw	v1,0(sp)
  4074cc:	8fa20004 	lw	v0,4(sp)
  4074d0:	8fa40008 	lw	a0,8(sp)
  4074d4:	00621821 	addu	v1,v1,v0
  4074d8:	00641823 	subu	v1,v1,a0
  4074dc:	00651821 	addu	v1,v1,a1
  4074e0:	afa30000 	sw	v1,0(sp)
  4074e4:	8fa20000 	lw	v0,0(sp)
  4074e8:	8fa30004 	lw	v1,4(sp)
  4074ec:	8fa40008 	lw	a0,8(sp)
  4074f0:	00431021 	addu	v0,v0,v1
  4074f4:	00441023 	subu	v0,v0,a0
  4074f8:	00451021 	addu	v0,v0,a1
  4074fc:	24a50001 	addiu	a1,a1,1
  407500:	28a30002 	slti	v1,a1,2
  407504:	1460ffcd 	bnez	v1,40743c <func_18+0x36c>
  407508:	afa20008 	sw	v0,8(sp)
  40750c:	00002821 	move	a1,zero
  407510:	8fa20000 	lw	v0,0(sp)
  407514:	8fa30004 	lw	v1,4(sp)
  407518:	8fa40008 	lw	a0,8(sp)
  40751c:	00431021 	addu	v0,v0,v1
  407520:	00441023 	subu	v0,v0,a0
  407524:	00451021 	addu	v0,v0,a1
  407528:	afa20000 	sw	v0,0(sp)
  40752c:	8fa30000 	lw	v1,0(sp)
  407530:	8fa20004 	lw	v0,4(sp)
  407534:	8fa40008 	lw	a0,8(sp)
  407538:	00621821 	addu	v1,v1,v0
  40753c:	00641823 	subu	v1,v1,a0
  407540:	00651821 	addu	v1,v1,a1
  407544:	afa30008 	sw	v1,8(sp)
  407548:	8fa20000 	lw	v0,0(sp)
  40754c:	8fa30004 	lw	v1,4(sp)
  407550:	8fa40008 	lw	a0,8(sp)
  407554:	00431021 	addu	v0,v0,v1
  407558:	00441023 	subu	v0,v0,a0
  40755c:	00451021 	addu	v0,v0,a1
  407560:	afa20004 	sw	v0,4(sp)
  407564:	8fa30000 	lw	v1,0(sp)
  407568:	8fa20004 	lw	v0,4(sp)
  40756c:	8fa40008 	lw	a0,8(sp)
  407570:	00621821 	addu	v1,v1,v0
  407574:	00641823 	subu	v1,v1,a0
  407578:	00651821 	addu	v1,v1,a1
  40757c:	afa30000 	sw	v1,0(sp)
  407580:	8fa20000 	lw	v0,0(sp)
  407584:	8fa30004 	lw	v1,4(sp)
  407588:	8fa40008 	lw	a0,8(sp)
  40758c:	00431021 	addu	v0,v0,v1
  407590:	00441023 	subu	v0,v0,a0
  407594:	00451021 	addu	v0,v0,a1
  407598:	afa20008 	sw	v0,8(sp)
  40759c:	8fa30000 	lw	v1,0(sp)
  4075a0:	8fa20004 	lw	v0,4(sp)
  4075a4:	8fa40008 	lw	a0,8(sp)
  4075a8:	00621821 	addu	v1,v1,v0
  4075ac:	00641823 	subu	v1,v1,a0
  4075b0:	00651821 	addu	v1,v1,a1
  4075b4:	afa30004 	sw	v1,4(sp)
  4075b8:	8fa20000 	lw	v0,0(sp)
  4075bc:	8fa30004 	lw	v1,4(sp)
  4075c0:	8fa40008 	lw	a0,8(sp)
  4075c4:	00431021 	addu	v0,v0,v1
  4075c8:	00441023 	subu	v0,v0,a0
  4075cc:	00451021 	addu	v0,v0,a1
  4075d0:	afa20000 	sw	v0,0(sp)
  4075d4:	8fa30000 	lw	v1,0(sp)
  4075d8:	8fa20004 	lw	v0,4(sp)
  4075dc:	8fa40008 	lw	a0,8(sp)
  4075e0:	00621821 	addu	v1,v1,v0
  4075e4:	00641823 	subu	v1,v1,a0
  4075e8:	00651821 	addu	v1,v1,a1
  4075ec:	afa30004 	sw	v1,4(sp)
  4075f0:	8fa20000 	lw	v0,0(sp)
  4075f4:	8fa30004 	lw	v1,4(sp)
  4075f8:	8fa40008 	lw	a0,8(sp)
  4075fc:	00431021 	addu	v0,v0,v1
  407600:	00441023 	subu	v0,v0,a0
  407604:	00451021 	addu	v0,v0,a1
  407608:	afa20000 	sw	v0,0(sp)
  40760c:	8fa30000 	lw	v1,0(sp)
  407610:	8fa20004 	lw	v0,4(sp)
  407614:	8fa40008 	lw	a0,8(sp)
  407618:	00621821 	addu	v1,v1,v0
  40761c:	00641823 	subu	v1,v1,a0
  407620:	00651821 	addu	v1,v1,a1
  407624:	afa30008 	sw	v1,8(sp)
  407628:	8fa20000 	lw	v0,0(sp)
  40762c:	8fa30004 	lw	v1,4(sp)
  407630:	8fa40008 	lw	a0,8(sp)
  407634:	00431021 	addu	v0,v0,v1
  407638:	00441023 	subu	v0,v0,a0
  40763c:	00451021 	addu	v0,v0,a1
  407640:	afa20004 	sw	v0,4(sp)
  407644:	8fa30000 	lw	v1,0(sp)
  407648:	8fa20004 	lw	v0,4(sp)
  40764c:	8fa40008 	lw	a0,8(sp)
  407650:	00621821 	addu	v1,v1,v0
  407654:	00641823 	subu	v1,v1,a0
  407658:	00651821 	addu	v1,v1,a1
  40765c:	afa30000 	sw	v1,0(sp)
  407660:	8fa20000 	lw	v0,0(sp)
  407664:	8fa30004 	lw	v1,4(sp)
  407668:	8fa40008 	lw	a0,8(sp)
  40766c:	00431021 	addu	v0,v0,v1
  407670:	00441023 	subu	v0,v0,a0
  407674:	00451021 	addu	v0,v0,a1
  407678:	afa20008 	sw	v0,8(sp)
  40767c:	8fa30000 	lw	v1,0(sp)
  407680:	8fa20004 	lw	v0,4(sp)
  407684:	8fa40008 	lw	a0,8(sp)
  407688:	00621821 	addu	v1,v1,v0
  40768c:	00641823 	subu	v1,v1,a0
  407690:	00651821 	addu	v1,v1,a1
  407694:	afa30004 	sw	v1,4(sp)
  407698:	8fa20000 	lw	v0,0(sp)
  40769c:	8fa30004 	lw	v1,4(sp)
  4076a0:	8fa40008 	lw	a0,8(sp)
  4076a4:	00431021 	addu	v0,v0,v1
  4076a8:	00441023 	subu	v0,v0,a0
  4076ac:	00451021 	addu	v0,v0,a1
  4076b0:	afa20000 	sw	v0,0(sp)
  4076b4:	8fa30000 	lw	v1,0(sp)
  4076b8:	8fa20004 	lw	v0,4(sp)
  4076bc:	8fa40008 	lw	a0,8(sp)
  4076c0:	00621821 	addu	v1,v1,v0
